
ctarget:     file format elf64-x86-64


Disassembly of section .init:

0000000000001000 <_init>:
    1000:	f3 0f 1e fa          	endbr64 
    1004:	48 83 ec 08          	sub    $0x8,%rsp
    1008:	48 8b 05 d9 5f 00 00 	mov    0x5fd9(%rip),%rax        # 6fe8 <__gmon_start__>
    100f:	48 85 c0             	test   %rax,%rax
    1012:	74 02                	je     1016 <_init+0x16>
    1014:	ff d0                	callq  *%rax
    1016:	48 83 c4 08          	add    $0x8,%rsp
    101a:	c3                   	retq   

Disassembly of section .plt:

0000000000001020 <.plt>:
    1020:	ff 35 9a 5e 00 00    	pushq  0x5e9a(%rip)        # 6ec0 <_GLOBAL_OFFSET_TABLE_+0x8>
    1026:	f2 ff 25 9b 5e 00 00 	bnd jmpq *0x5e9b(%rip)        # 6ec8 <_GLOBAL_OFFSET_TABLE_+0x10>
    102d:	0f 1f 00             	nopl   (%rax)
    1030:	f3 0f 1e fa          	endbr64 
    1034:	68 00 00 00 00       	pushq  $0x0
    1039:	f2 e9 e1 ff ff ff    	bnd jmpq 1020 <.plt>
    103f:	90                   	nop
    1040:	f3 0f 1e fa          	endbr64 
    1044:	68 01 00 00 00       	pushq  $0x1
    1049:	f2 e9 d1 ff ff ff    	bnd jmpq 1020 <.plt>
    104f:	90                   	nop
    1050:	f3 0f 1e fa          	endbr64 
    1054:	68 02 00 00 00       	pushq  $0x2
    1059:	f2 e9 c1 ff ff ff    	bnd jmpq 1020 <.plt>
    105f:	90                   	nop
    1060:	f3 0f 1e fa          	endbr64 
    1064:	68 03 00 00 00       	pushq  $0x3
    1069:	f2 e9 b1 ff ff ff    	bnd jmpq 1020 <.plt>
    106f:	90                   	nop
    1070:	f3 0f 1e fa          	endbr64 
    1074:	68 04 00 00 00       	pushq  $0x4
    1079:	f2 e9 a1 ff ff ff    	bnd jmpq 1020 <.plt>
    107f:	90                   	nop
    1080:	f3 0f 1e fa          	endbr64 
    1084:	68 05 00 00 00       	pushq  $0x5
    1089:	f2 e9 91 ff ff ff    	bnd jmpq 1020 <.plt>
    108f:	90                   	nop
    1090:	f3 0f 1e fa          	endbr64 
    1094:	68 06 00 00 00       	pushq  $0x6
    1099:	f2 e9 81 ff ff ff    	bnd jmpq 1020 <.plt>
    109f:	90                   	nop
    10a0:	f3 0f 1e fa          	endbr64 
    10a4:	68 07 00 00 00       	pushq  $0x7
    10a9:	f2 e9 71 ff ff ff    	bnd jmpq 1020 <.plt>
    10af:	90                   	nop
    10b0:	f3 0f 1e fa          	endbr64 
    10b4:	68 08 00 00 00       	pushq  $0x8
    10b9:	f2 e9 61 ff ff ff    	bnd jmpq 1020 <.plt>
    10bf:	90                   	nop
    10c0:	f3 0f 1e fa          	endbr64 
    10c4:	68 09 00 00 00       	pushq  $0x9
    10c9:	f2 e9 51 ff ff ff    	bnd jmpq 1020 <.plt>
    10cf:	90                   	nop
    10d0:	f3 0f 1e fa          	endbr64 
    10d4:	68 0a 00 00 00       	pushq  $0xa
    10d9:	f2 e9 41 ff ff ff    	bnd jmpq 1020 <.plt>
    10df:	90                   	nop
    10e0:	f3 0f 1e fa          	endbr64 
    10e4:	68 0b 00 00 00       	pushq  $0xb
    10e9:	f2 e9 31 ff ff ff    	bnd jmpq 1020 <.plt>
    10ef:	90                   	nop
    10f0:	f3 0f 1e fa          	endbr64 
    10f4:	68 0c 00 00 00       	pushq  $0xc
    10f9:	f2 e9 21 ff ff ff    	bnd jmpq 1020 <.plt>
    10ff:	90                   	nop
    1100:	f3 0f 1e fa          	endbr64 
    1104:	68 0d 00 00 00       	pushq  $0xd
    1109:	f2 e9 11 ff ff ff    	bnd jmpq 1020 <.plt>
    110f:	90                   	nop
    1110:	f3 0f 1e fa          	endbr64 
    1114:	68 0e 00 00 00       	pushq  $0xe
    1119:	f2 e9 01 ff ff ff    	bnd jmpq 1020 <.plt>
    111f:	90                   	nop
    1120:	f3 0f 1e fa          	endbr64 
    1124:	68 0f 00 00 00       	pushq  $0xf
    1129:	f2 e9 f1 fe ff ff    	bnd jmpq 1020 <.plt>
    112f:	90                   	nop
    1130:	f3 0f 1e fa          	endbr64 
    1134:	68 10 00 00 00       	pushq  $0x10
    1139:	f2 e9 e1 fe ff ff    	bnd jmpq 1020 <.plt>
    113f:	90                   	nop
    1140:	f3 0f 1e fa          	endbr64 
    1144:	68 11 00 00 00       	pushq  $0x11
    1149:	f2 e9 d1 fe ff ff    	bnd jmpq 1020 <.plt>
    114f:	90                   	nop
    1150:	f3 0f 1e fa          	endbr64 
    1154:	68 12 00 00 00       	pushq  $0x12
    1159:	f2 e9 c1 fe ff ff    	bnd jmpq 1020 <.plt>
    115f:	90                   	nop
    1160:	f3 0f 1e fa          	endbr64 
    1164:	68 13 00 00 00       	pushq  $0x13
    1169:	f2 e9 b1 fe ff ff    	bnd jmpq 1020 <.plt>
    116f:	90                   	nop
    1170:	f3 0f 1e fa          	endbr64 
    1174:	68 14 00 00 00       	pushq  $0x14
    1179:	f2 e9 a1 fe ff ff    	bnd jmpq 1020 <.plt>
    117f:	90                   	nop
    1180:	f3 0f 1e fa          	endbr64 
    1184:	68 15 00 00 00       	pushq  $0x15
    1189:	f2 e9 91 fe ff ff    	bnd jmpq 1020 <.plt>
    118f:	90                   	nop
    1190:	f3 0f 1e fa          	endbr64 
    1194:	68 16 00 00 00       	pushq  $0x16
    1199:	f2 e9 81 fe ff ff    	bnd jmpq 1020 <.plt>
    119f:	90                   	nop
    11a0:	f3 0f 1e fa          	endbr64 
    11a4:	68 17 00 00 00       	pushq  $0x17
    11a9:	f2 e9 71 fe ff ff    	bnd jmpq 1020 <.plt>
    11af:	90                   	nop
    11b0:	f3 0f 1e fa          	endbr64 
    11b4:	68 18 00 00 00       	pushq  $0x18
    11b9:	f2 e9 61 fe ff ff    	bnd jmpq 1020 <.plt>
    11bf:	90                   	nop
    11c0:	f3 0f 1e fa          	endbr64 
    11c4:	68 19 00 00 00       	pushq  $0x19
    11c9:	f2 e9 51 fe ff ff    	bnd jmpq 1020 <.plt>
    11cf:	90                   	nop
    11d0:	f3 0f 1e fa          	endbr64 
    11d4:	68 1a 00 00 00       	pushq  $0x1a
    11d9:	f2 e9 41 fe ff ff    	bnd jmpq 1020 <.plt>
    11df:	90                   	nop
    11e0:	f3 0f 1e fa          	endbr64 
    11e4:	68 1b 00 00 00       	pushq  $0x1b
    11e9:	f2 e9 31 fe ff ff    	bnd jmpq 1020 <.plt>
    11ef:	90                   	nop
    11f0:	f3 0f 1e fa          	endbr64 
    11f4:	68 1c 00 00 00       	pushq  $0x1c
    11f9:	f2 e9 21 fe ff ff    	bnd jmpq 1020 <.plt>
    11ff:	90                   	nop
    1200:	f3 0f 1e fa          	endbr64 
    1204:	68 1d 00 00 00       	pushq  $0x1d
    1209:	f2 e9 11 fe ff ff    	bnd jmpq 1020 <.plt>
    120f:	90                   	nop
    1210:	f3 0f 1e fa          	endbr64 
    1214:	68 1e 00 00 00       	pushq  $0x1e
    1219:	f2 e9 01 fe ff ff    	bnd jmpq 1020 <.plt>
    121f:	90                   	nop
    1220:	f3 0f 1e fa          	endbr64 
    1224:	68 1f 00 00 00       	pushq  $0x1f
    1229:	f2 e9 f1 fd ff ff    	bnd jmpq 1020 <.plt>
    122f:	90                   	nop
    1230:	f3 0f 1e fa          	endbr64 
    1234:	68 20 00 00 00       	pushq  $0x20
    1239:	f2 e9 e1 fd ff ff    	bnd jmpq 1020 <.plt>
    123f:	90                   	nop

Disassembly of section .plt.got:

0000000000001240 <__cxa_finalize@plt>:
    1240:	f3 0f 1e fa          	endbr64 
    1244:	f2 ff 25 ad 5d 00 00 	bnd jmpq *0x5dad(%rip)        # 6ff8 <__cxa_finalize@GLIBC_2.2.5>
    124b:	0f 1f 44 00 00       	nopl   0x0(%rax,%rax,1)

Disassembly of section .plt.sec:

0000000000001250 <strcasecmp@plt>:
    1250:	f3 0f 1e fa          	endbr64 
    1254:	f2 ff 25 75 5c 00 00 	bnd jmpq *0x5c75(%rip)        # 6ed0 <strcasecmp@GLIBC_2.2.5>
    125b:	0f 1f 44 00 00       	nopl   0x0(%rax,%rax,1)

0000000000001260 <__errno_location@plt>:
    1260:	f3 0f 1e fa          	endbr64 
    1264:	f2 ff 25 6d 5c 00 00 	bnd jmpq *0x5c6d(%rip)        # 6ed8 <__errno_location@GLIBC_2.2.5>
    126b:	0f 1f 44 00 00       	nopl   0x0(%rax,%rax,1)

0000000000001270 <srandom@plt>:
    1270:	f3 0f 1e fa          	endbr64 
    1274:	f2 ff 25 65 5c 00 00 	bnd jmpq *0x5c65(%rip)        # 6ee0 <srandom@GLIBC_2.2.5>
    127b:	0f 1f 44 00 00       	nopl   0x0(%rax,%rax,1)

0000000000001280 <strncmp@plt>:
    1280:	f3 0f 1e fa          	endbr64 
    1284:	f2 ff 25 5d 5c 00 00 	bnd jmpq *0x5c5d(%rip)        # 6ee8 <strncmp@GLIBC_2.2.5>
    128b:	0f 1f 44 00 00       	nopl   0x0(%rax,%rax,1)

0000000000001290 <strcpy@plt>:
    1290:	f3 0f 1e fa          	endbr64 
    1294:	f2 ff 25 55 5c 00 00 	bnd jmpq *0x5c55(%rip)        # 6ef0 <strcpy@GLIBC_2.2.5>
    129b:	0f 1f 44 00 00       	nopl   0x0(%rax,%rax,1)

00000000000012a0 <puts@plt>:
    12a0:	f3 0f 1e fa          	endbr64 
    12a4:	f2 ff 25 4d 5c 00 00 	bnd jmpq *0x5c4d(%rip)        # 6ef8 <puts@GLIBC_2.2.5>
    12ab:	0f 1f 44 00 00       	nopl   0x0(%rax,%rax,1)

00000000000012b0 <write@plt>:
    12b0:	f3 0f 1e fa          	endbr64 
    12b4:	f2 ff 25 45 5c 00 00 	bnd jmpq *0x5c45(%rip)        # 6f00 <write@GLIBC_2.2.5>
    12bb:	0f 1f 44 00 00       	nopl   0x0(%rax,%rax,1)

00000000000012c0 <__stack_chk_fail@plt>:
    12c0:	f3 0f 1e fa          	endbr64 
    12c4:	f2 ff 25 3d 5c 00 00 	bnd jmpq *0x5c3d(%rip)        # 6f08 <__stack_chk_fail@GLIBC_2.4>
    12cb:	0f 1f 44 00 00       	nopl   0x0(%rax,%rax,1)

00000000000012d0 <mmap@plt>:
    12d0:	f3 0f 1e fa          	endbr64 
    12d4:	f2 ff 25 35 5c 00 00 	bnd jmpq *0x5c35(%rip)        # 6f10 <mmap@GLIBC_2.2.5>
    12db:	0f 1f 44 00 00       	nopl   0x0(%rax,%rax,1)

00000000000012e0 <memset@plt>:
    12e0:	f3 0f 1e fa          	endbr64 
    12e4:	f2 ff 25 2d 5c 00 00 	bnd jmpq *0x5c2d(%rip)        # 6f18 <memset@GLIBC_2.2.5>
    12eb:	0f 1f 44 00 00       	nopl   0x0(%rax,%rax,1)

00000000000012f0 <alarm@plt>:
    12f0:	f3 0f 1e fa          	endbr64 
    12f4:	f2 ff 25 25 5c 00 00 	bnd jmpq *0x5c25(%rip)        # 6f20 <alarm@GLIBC_2.2.5>
    12fb:	0f 1f 44 00 00       	nopl   0x0(%rax,%rax,1)

0000000000001300 <close@plt>:
    1300:	f3 0f 1e fa          	endbr64 
    1304:	f2 ff 25 1d 5c 00 00 	bnd jmpq *0x5c1d(%rip)        # 6f28 <close@GLIBC_2.2.5>
    130b:	0f 1f 44 00 00       	nopl   0x0(%rax,%rax,1)

0000000000001310 <read@plt>:
    1310:	f3 0f 1e fa          	endbr64 
    1314:	f2 ff 25 15 5c 00 00 	bnd jmpq *0x5c15(%rip)        # 6f30 <read@GLIBC_2.2.5>
    131b:	0f 1f 44 00 00       	nopl   0x0(%rax,%rax,1)

0000000000001320 <signal@plt>:
    1320:	f3 0f 1e fa          	endbr64 
    1324:	f2 ff 25 0d 5c 00 00 	bnd jmpq *0x5c0d(%rip)        # 6f38 <signal@GLIBC_2.2.5>
    132b:	0f 1f 44 00 00       	nopl   0x0(%rax,%rax,1)

0000000000001330 <gethostbyname@plt>:
    1330:	f3 0f 1e fa          	endbr64 
    1334:	f2 ff 25 05 5c 00 00 	bnd jmpq *0x5c05(%rip)        # 6f40 <gethostbyname@GLIBC_2.2.5>
    133b:	0f 1f 44 00 00       	nopl   0x0(%rax,%rax,1)

0000000000001340 <__memmove_chk@plt>:
    1340:	f3 0f 1e fa          	endbr64 
    1344:	f2 ff 25 fd 5b 00 00 	bnd jmpq *0x5bfd(%rip)        # 6f48 <__memmove_chk@GLIBC_2.3.4>
    134b:	0f 1f 44 00 00       	nopl   0x0(%rax,%rax,1)

0000000000001350 <strtol@plt>:
    1350:	f3 0f 1e fa          	endbr64 
    1354:	f2 ff 25 f5 5b 00 00 	bnd jmpq *0x5bf5(%rip)        # 6f50 <strtol@GLIBC_2.2.5>
    135b:	0f 1f 44 00 00       	nopl   0x0(%rax,%rax,1)

0000000000001360 <memcpy@plt>:
    1360:	f3 0f 1e fa          	endbr64 
    1364:	f2 ff 25 ed 5b 00 00 	bnd jmpq *0x5bed(%rip)        # 6f58 <memcpy@GLIBC_2.14>
    136b:	0f 1f 44 00 00       	nopl   0x0(%rax,%rax,1)

0000000000001370 <time@plt>:
    1370:	f3 0f 1e fa          	endbr64 
    1374:	f2 ff 25 e5 5b 00 00 	bnd jmpq *0x5be5(%rip)        # 6f60 <time@GLIBC_2.2.5>
    137b:	0f 1f 44 00 00       	nopl   0x0(%rax,%rax,1)

0000000000001380 <random@plt>:
    1380:	f3 0f 1e fa          	endbr64 
    1384:	f2 ff 25 dd 5b 00 00 	bnd jmpq *0x5bdd(%rip)        # 6f68 <random@GLIBC_2.2.5>
    138b:	0f 1f 44 00 00       	nopl   0x0(%rax,%rax,1)

0000000000001390 <__isoc99_sscanf@plt>:
    1390:	f3 0f 1e fa          	endbr64 
    1394:	f2 ff 25 d5 5b 00 00 	bnd jmpq *0x5bd5(%rip)        # 6f70 <__isoc99_sscanf@GLIBC_2.7>
    139b:	0f 1f 44 00 00       	nopl   0x0(%rax,%rax,1)

00000000000013a0 <munmap@plt>:
    13a0:	f3 0f 1e fa          	endbr64 
    13a4:	f2 ff 25 cd 5b 00 00 	bnd jmpq *0x5bcd(%rip)        # 6f78 <munmap@GLIBC_2.2.5>
    13ab:	0f 1f 44 00 00       	nopl   0x0(%rax,%rax,1)

00000000000013b0 <__printf_chk@plt>:
    13b0:	f3 0f 1e fa          	endbr64 
    13b4:	f2 ff 25 c5 5b 00 00 	bnd jmpq *0x5bc5(%rip)        # 6f80 <__printf_chk@GLIBC_2.3.4>
    13bb:	0f 1f 44 00 00       	nopl   0x0(%rax,%rax,1)

00000000000013c0 <fopen@plt>:
    13c0:	f3 0f 1e fa          	endbr64 
    13c4:	f2 ff 25 bd 5b 00 00 	bnd jmpq *0x5bbd(%rip)        # 6f88 <fopen@GLIBC_2.2.5>
    13cb:	0f 1f 44 00 00       	nopl   0x0(%rax,%rax,1)

00000000000013d0 <getopt@plt>:
    13d0:	f3 0f 1e fa          	endbr64 
    13d4:	f2 ff 25 b5 5b 00 00 	bnd jmpq *0x5bb5(%rip)        # 6f90 <getopt@GLIBC_2.2.5>
    13db:	0f 1f 44 00 00       	nopl   0x0(%rax,%rax,1)

00000000000013e0 <strtoul@plt>:
    13e0:	f3 0f 1e fa          	endbr64 
    13e4:	f2 ff 25 ad 5b 00 00 	bnd jmpq *0x5bad(%rip)        # 6f98 <strtoul@GLIBC_2.2.5>
    13eb:	0f 1f 44 00 00       	nopl   0x0(%rax,%rax,1)

00000000000013f0 <gethostname@plt>:
    13f0:	f3 0f 1e fa          	endbr64 
    13f4:	f2 ff 25 a5 5b 00 00 	bnd jmpq *0x5ba5(%rip)        # 6fa0 <gethostname@GLIBC_2.2.5>
    13fb:	0f 1f 44 00 00       	nopl   0x0(%rax,%rax,1)

0000000000001400 <exit@plt>:
    1400:	f3 0f 1e fa          	endbr64 
    1404:	f2 ff 25 9d 5b 00 00 	bnd jmpq *0x5b9d(%rip)        # 6fa8 <exit@GLIBC_2.2.5>
    140b:	0f 1f 44 00 00       	nopl   0x0(%rax,%rax,1)

0000000000001410 <connect@plt>:
    1410:	f3 0f 1e fa          	endbr64 
    1414:	f2 ff 25 95 5b 00 00 	bnd jmpq *0x5b95(%rip)        # 6fb0 <connect@GLIBC_2.2.5>
    141b:	0f 1f 44 00 00       	nopl   0x0(%rax,%rax,1)

0000000000001420 <__fprintf_chk@plt>:
    1420:	f3 0f 1e fa          	endbr64 
    1424:	f2 ff 25 8d 5b 00 00 	bnd jmpq *0x5b8d(%rip)        # 6fb8 <__fprintf_chk@GLIBC_2.3.4>
    142b:	0f 1f 44 00 00       	nopl   0x0(%rax,%rax,1)

0000000000001430 <getc@plt>:
    1430:	f3 0f 1e fa          	endbr64 
    1434:	f2 ff 25 85 5b 00 00 	bnd jmpq *0x5b85(%rip)        # 6fc0 <getc@GLIBC_2.2.5>
    143b:	0f 1f 44 00 00       	nopl   0x0(%rax,%rax,1)

0000000000001440 <__sprintf_chk@plt>:
    1440:	f3 0f 1e fa          	endbr64 
    1444:	f2 ff 25 7d 5b 00 00 	bnd jmpq *0x5b7d(%rip)        # 6fc8 <__sprintf_chk@GLIBC_2.3.4>
    144b:	0f 1f 44 00 00       	nopl   0x0(%rax,%rax,1)

0000000000001450 <socket@plt>:
    1450:	f3 0f 1e fa          	endbr64 
    1454:	f2 ff 25 75 5b 00 00 	bnd jmpq *0x5b75(%rip)        # 6fd0 <socket@GLIBC_2.2.5>
    145b:	0f 1f 44 00 00       	nopl   0x0(%rax,%rax,1)

Disassembly of section .text:

0000000000001460 <_start>:
    1460:	f3 0f 1e fa          	endbr64 
    1464:	31 ed                	xor    %ebp,%ebp
    1466:	49 89 d1             	mov    %rdx,%r9
    1469:	5e                   	pop    %rsi
    146a:	48 89 e2             	mov    %rsp,%rdx
    146d:	48 83 e4 f0          	and    $0xfffffffffffffff0,%rsp
    1471:	50                   	push   %rax
    1472:	54                   	push   %rsp
    1473:	4c 8d 05 46 1f 00 00 	lea    0x1f46(%rip),%r8        # 33c0 <__libc_csu_fini>
    147a:	48 8d 0d cf 1e 00 00 	lea    0x1ecf(%rip),%rcx        # 3350 <__libc_csu_init>
    1481:	48 8d 3d f8 02 00 00 	lea    0x2f8(%rip),%rdi        # 1780 <main>
    1488:	ff 15 52 5b 00 00    	callq  *0x5b52(%rip)        # 6fe0 <__libc_start_main@GLIBC_2.2.5>
    148e:	f4                   	hlt    
    148f:	90                   	nop

0000000000001490 <deregister_tm_clones>:
    1490:	48 8d 3d a1 5b 00 00 	lea    0x5ba1(%rip),%rdi        # 7038 <__TMC_END__>
    1497:	48 8d 05 9a 5b 00 00 	lea    0x5b9a(%rip),%rax        # 7038 <__TMC_END__>
    149e:	48 39 f8             	cmp    %rdi,%rax
    14a1:	74 15                	je     14b8 <deregister_tm_clones+0x28>
    14a3:	48 8b 05 2e 5b 00 00 	mov    0x5b2e(%rip),%rax        # 6fd8 <_ITM_deregisterTMCloneTable>
    14aa:	48 85 c0             	test   %rax,%rax
    14ad:	74 09                	je     14b8 <deregister_tm_clones+0x28>
    14af:	ff e0                	jmpq   *%rax
    14b1:	0f 1f 80 00 00 00 00 	nopl   0x0(%rax)
    14b8:	c3                   	retq   
    14b9:	0f 1f 80 00 00 00 00 	nopl   0x0(%rax)

00000000000014c0 <register_tm_clones>:
    14c0:	48 8d 3d 71 5b 00 00 	lea    0x5b71(%rip),%rdi        # 7038 <__TMC_END__>
    14c7:	48 8d 35 6a 5b 00 00 	lea    0x5b6a(%rip),%rsi        # 7038 <__TMC_END__>
    14ce:	48 29 fe             	sub    %rdi,%rsi
    14d1:	48 89 f0             	mov    %rsi,%rax
    14d4:	48 c1 ee 3f          	shr    $0x3f,%rsi
    14d8:	48 c1 f8 03          	sar    $0x3,%rax
    14dc:	48 01 c6             	add    %rax,%rsi
    14df:	48 d1 fe             	sar    %rsi
    14e2:	74 14                	je     14f8 <register_tm_clones+0x38>
    14e4:	48 8b 05 05 5b 00 00 	mov    0x5b05(%rip),%rax        # 6ff0 <_ITM_registerTMCloneTable>
    14eb:	48 85 c0             	test   %rax,%rax
    14ee:	74 08                	je     14f8 <register_tm_clones+0x38>
    14f0:	ff e0                	jmpq   *%rax
    14f2:	66 0f 1f 44 00 00    	nopw   0x0(%rax,%rax,1)
    14f8:	c3                   	retq   
    14f9:	0f 1f 80 00 00 00 00 	nopl   0x0(%rax)

0000000000001500 <__do_global_dtors_aux>:
    1500:	f3 0f 1e fa          	endbr64 
    1504:	80 3d 5d 5b 00 00 00 	cmpb   $0x0,0x5b5d(%rip)        # 7068 <completed.8061>
    150b:	75 2b                	jne    1538 <__do_global_dtors_aux+0x38>
    150d:	55                   	push   %rbp
    150e:	48 83 3d e2 5a 00 00 	cmpq   $0x0,0x5ae2(%rip)        # 6ff8 <__cxa_finalize@GLIBC_2.2.5>
    1515:	00 
    1516:	48 89 e5             	mov    %rsp,%rbp
    1519:	74 0c                	je     1527 <__do_global_dtors_aux+0x27>
    151b:	48 8b 3d e6 5a 00 00 	mov    0x5ae6(%rip),%rdi        # 7008 <__dso_handle>
    1522:	e8 19 fd ff ff       	callq  1240 <__cxa_finalize@plt>
    1527:	e8 64 ff ff ff       	callq  1490 <deregister_tm_clones>
    152c:	c6 05 35 5b 00 00 01 	movb   $0x1,0x5b35(%rip)        # 7068 <completed.8061>
    1533:	5d                   	pop    %rbp
    1534:	c3                   	retq   
    1535:	0f 1f 00             	nopl   (%rax)
    1538:	c3                   	retq   
    1539:	0f 1f 80 00 00 00 00 	nopl   0x0(%rax)

0000000000001540 <frame_dummy>:
    1540:	f3 0f 1e fa          	endbr64 
    1544:	e9 77 ff ff ff       	jmpq   14c0 <register_tm_clones>

0000000000001549 <usage>:
    1549:	50                   	push   %rax
    154a:	58                   	pop    %rax
    154b:	48 83 ec 08          	sub    $0x8,%rsp
    154f:	48 89 fa             	mov    %rdi,%rdx
    1552:	83 3d 73 5e 00 00 00 	cmpl   $0x0,0x5e73(%rip)        # 73cc <is_checker>
    1559:	74 50                	je     15ab <usage+0x62>
    155b:	48 8d 35 a6 2a 00 00 	lea    0x2aa6(%rip),%rsi        # 4008 <_IO_stdin_used+0x8>
    1562:	bf 01 00 00 00       	mov    $0x1,%edi
    1567:	b8 00 00 00 00       	mov    $0x0,%eax
    156c:	e8 3f fe ff ff       	callq  13b0 <__printf_chk@plt>
    1571:	48 8d 3d c8 2a 00 00 	lea    0x2ac8(%rip),%rdi        # 4040 <_IO_stdin_used+0x40>
    1578:	e8 23 fd ff ff       	callq  12a0 <puts@plt>
    157d:	48 8d 3d 04 2c 00 00 	lea    0x2c04(%rip),%rdi        # 4188 <_IO_stdin_used+0x188>
    1584:	e8 17 fd ff ff       	callq  12a0 <puts@plt>
    1589:	48 8d 3d d8 2a 00 00 	lea    0x2ad8(%rip),%rdi        # 4068 <_IO_stdin_used+0x68>
    1590:	e8 0b fd ff ff       	callq  12a0 <puts@plt>
    1595:	48 8d 3d 06 2c 00 00 	lea    0x2c06(%rip),%rdi        # 41a2 <_IO_stdin_used+0x1a2>
    159c:	e8 ff fc ff ff       	callq  12a0 <puts@plt>
    15a1:	bf 00 00 00 00       	mov    $0x0,%edi
    15a6:	e8 55 fe ff ff       	callq  1400 <exit@plt>
    15ab:	48 8d 35 0c 2c 00 00 	lea    0x2c0c(%rip),%rsi        # 41be <_IO_stdin_used+0x1be>
    15b2:	bf 01 00 00 00       	mov    $0x1,%edi
    15b7:	b8 00 00 00 00       	mov    $0x0,%eax
    15bc:	e8 ef fd ff ff       	callq  13b0 <__printf_chk@plt>
    15c1:	48 8d 3d c8 2a 00 00 	lea    0x2ac8(%rip),%rdi        # 4090 <_IO_stdin_used+0x90>
    15c8:	e8 d3 fc ff ff       	callq  12a0 <puts@plt>
    15cd:	48 8d 3d 08 2c 00 00 	lea    0x2c08(%rip),%rdi        # 41dc <_IO_stdin_used+0x1dc>
    15d4:	e8 c7 fc ff ff       	callq  12a0 <puts@plt>
    15d9:	eb c6                	jmp    15a1 <usage+0x58>

00000000000015db <initialize_target>:
    15db:	55                   	push   %rbp
    15dc:	53                   	push   %rbx
    15dd:	48 81 ec 00 10 00 00 	sub    $0x1000,%rsp
    15e4:	48 83 0c 24 00       	orq    $0x0,(%rsp)
    15e9:	48 81 ec 00 10 00 00 	sub    $0x1000,%rsp
    15f0:	48 83 0c 24 00       	orq    $0x0,(%rsp)
    15f5:	48 81 ec 18 01 00 00 	sub    $0x118,%rsp
    15fc:	89 f5                	mov    %esi,%ebp
    15fe:	64 48 8b 04 25 28 00 	mov    %fs:0x28,%rax
    1605:	00 00 
    1607:	48 89 84 24 08 21 00 	mov    %rax,0x2108(%rsp)
    160e:	00 
    160f:	31 c0                	xor    %eax,%eax
    1611:	89 3d a5 5d 00 00    	mov    %edi,0x5da5(%rip)        # 73bc <check_level>
    1617:	8b 3d f3 59 00 00    	mov    0x59f3(%rip),%edi        # 7010 <target_id>
    161d:	e8 08 1d 00 00       	callq  332a <gencookie>
    1622:	89 c7                	mov    %eax,%edi
    1624:	89 05 9e 5d 00 00    	mov    %eax,0x5d9e(%rip)        # 73c8 <cookie>
    162a:	e8 fb 1c 00 00       	callq  332a <gencookie>
    162f:	89 05 8f 5d 00 00    	mov    %eax,0x5d8f(%rip)        # 73c4 <authkey>
    1635:	8b 05 d5 59 00 00    	mov    0x59d5(%rip),%eax        # 7010 <target_id>
    163b:	8d 78 01             	lea    0x1(%rax),%edi
    163e:	e8 2d fc ff ff       	callq  1270 <srandom@plt>
    1643:	e8 38 fd ff ff       	callq  1380 <random@plt>
    1648:	48 89 c7             	mov    %rax,%rdi
    164b:	e8 20 03 00 00       	callq  1970 <scramble>
    1650:	89 c3                	mov    %eax,%ebx
    1652:	85 ed                	test   %ebp,%ebp
    1654:	75 54                	jne    16aa <initialize_target+0xcf>
    1656:	b8 00 00 00 00       	mov    $0x0,%eax
    165b:	01 d8                	add    %ebx,%eax
    165d:	0f b7 c0             	movzwl %ax,%eax
    1660:	8d 04 c5 00 01 00 00 	lea    0x100(,%rax,8),%eax
    1667:	89 c0                	mov    %eax,%eax
    1669:	48 89 05 c0 59 00 00 	mov    %rax,0x59c0(%rip)        # 7030 <buf_offset>
    1670:	c6 05 71 69 00 00 63 	movb   $0x63,0x6971(%rip)        # 7fe8 <target_prefix>
    1677:	83 3d 3a 5d 00 00 00 	cmpl   $0x0,0x5d3a(%rip)        # 73b8 <notify>
    167e:	74 09                	je     1689 <initialize_target+0xae>
    1680:	83 3d 45 5d 00 00 00 	cmpl   $0x0,0x5d45(%rip)        # 73cc <is_checker>
    1687:	74 3a                	je     16c3 <initialize_target+0xe8>
    1689:	48 8b 84 24 08 21 00 	mov    0x2108(%rsp),%rax
    1690:	00 
    1691:	64 48 33 04 25 28 00 	xor    %fs:0x28,%rax
    1698:	00 00 
    169a:	0f 85 db 00 00 00    	jne    177b <initialize_target+0x1a0>
    16a0:	48 81 c4 18 21 00 00 	add    $0x2118,%rsp
    16a7:	5b                   	pop    %rbx
    16a8:	5d                   	pop    %rbp
    16a9:	c3                   	retq   
    16aa:	bf 00 00 00 00       	mov    $0x0,%edi
    16af:	e8 bc fc ff ff       	callq  1370 <time@plt>
    16b4:	48 89 c7             	mov    %rax,%rdi
    16b7:	e8 b4 fb ff ff       	callq  1270 <srandom@plt>
    16bc:	e8 bf fc ff ff       	callq  1380 <random@plt>
    16c1:	eb 98                	jmp    165b <initialize_target+0x80>
    16c3:	48 89 e7             	mov    %rsp,%rdi
    16c6:	be 00 01 00 00       	mov    $0x100,%esi
    16cb:	e8 20 fd ff ff       	callq  13f0 <gethostname@plt>
    16d0:	89 c5                	mov    %eax,%ebp
    16d2:	85 c0                	test   %eax,%eax
    16d4:	75 26                	jne    16fc <initialize_target+0x121>
    16d6:	89 c3                	mov    %eax,%ebx
    16d8:	48 63 c3             	movslq %ebx,%rax
    16db:	48 8d 15 9e 59 00 00 	lea    0x599e(%rip),%rdx        # 7080 <host_table>
    16e2:	48 8b 3c c2          	mov    (%rdx,%rax,8),%rdi
    16e6:	48 85 ff             	test   %rdi,%rdi
    16e9:	74 2c                	je     1717 <initialize_target+0x13c>
    16eb:	48 89 e6             	mov    %rsp,%rsi
    16ee:	e8 5d fb ff ff       	callq  1250 <strcasecmp@plt>
    16f3:	85 c0                	test   %eax,%eax
    16f5:	74 1b                	je     1712 <initialize_target+0x137>
    16f7:	83 c3 01             	add    $0x1,%ebx
    16fa:	eb dc                	jmp    16d8 <initialize_target+0xfd>
    16fc:	48 8d 3d b5 29 00 00 	lea    0x29b5(%rip),%rdi        # 40b8 <_IO_stdin_used+0xb8>
    1703:	e8 98 fb ff ff       	callq  12a0 <puts@plt>
    1708:	bf 08 00 00 00       	mov    $0x8,%edi
    170d:	e8 ee fc ff ff       	callq  1400 <exit@plt>
    1712:	bd 01 00 00 00       	mov    $0x1,%ebp
    1717:	85 ed                	test   %ebp,%ebp
    1719:	74 3d                	je     1758 <initialize_target+0x17d>
    171b:	48 8d bc 24 00 01 00 	lea    0x100(%rsp),%rdi
    1722:	00 
    1723:	e8 47 19 00 00       	callq  306f <init_driver>
    1728:	85 c0                	test   %eax,%eax
    172a:	0f 89 59 ff ff ff    	jns    1689 <initialize_target+0xae>
    1730:	48 8d 94 24 00 01 00 	lea    0x100(%rsp),%rdx
    1737:	00 
    1738:	48 8d 35 f1 29 00 00 	lea    0x29f1(%rip),%rsi        # 4130 <_IO_stdin_used+0x130>
    173f:	bf 01 00 00 00       	mov    $0x1,%edi
    1744:	b8 00 00 00 00       	mov    $0x0,%eax
    1749:	e8 62 fc ff ff       	callq  13b0 <__printf_chk@plt>
    174e:	bf 08 00 00 00       	mov    $0x8,%edi
    1753:	e8 a8 fc ff ff       	callq  1400 <exit@plt>
    1758:	48 89 e2             	mov    %rsp,%rdx
    175b:	48 8d 35 8e 29 00 00 	lea    0x298e(%rip),%rsi        # 40f0 <_IO_stdin_used+0xf0>
    1762:	bf 01 00 00 00       	mov    $0x1,%edi
    1767:	b8 00 00 00 00       	mov    $0x0,%eax
    176c:	e8 3f fc ff ff       	callq  13b0 <__printf_chk@plt>
    1771:	bf 08 00 00 00       	mov    $0x8,%edi
    1776:	e8 85 fc ff ff       	callq  1400 <exit@plt>
    177b:	e8 40 fb ff ff       	callq  12c0 <__stack_chk_fail@plt>

0000000000001780 <main>:
    1780:	f3 0f 1e fa          	endbr64 
    1784:	41 56                	push   %r14
    1786:	41 55                	push   %r13
    1788:	41 54                	push   %r12
    178a:	55                   	push   %rbp
    178b:	53                   	push   %rbx
    178c:	89 fd                	mov    %edi,%ebp
    178e:	48 89 f3             	mov    %rsi,%rbx
    1791:	48 8d 35 7a 0b 00 00 	lea    0xb7a(%rip),%rsi        # 2312 <seghandler>
    1798:	bf 0b 00 00 00       	mov    $0xb,%edi
    179d:	e8 7e fb ff ff       	callq  1320 <signal@plt>
    17a2:	48 8d 35 0f 0b 00 00 	lea    0xb0f(%rip),%rsi        # 22b8 <bushandler>
    17a9:	bf 07 00 00 00       	mov    $0x7,%edi
    17ae:	e8 6d fb ff ff       	callq  1320 <signal@plt>
    17b3:	48 8d 35 b2 0b 00 00 	lea    0xbb2(%rip),%rsi        # 236c <illegalhandler>
    17ba:	bf 04 00 00 00       	mov    $0x4,%edi
    17bf:	e8 5c fb ff ff       	callq  1320 <signal@plt>
    17c4:	83 3d 01 5c 00 00 00 	cmpl   $0x0,0x5c01(%rip)        # 73cc <is_checker>
    17cb:	75 26                	jne    17f3 <main+0x73>
    17cd:	4c 8d 25 29 2a 00 00 	lea    0x2a29(%rip),%r12        # 41fd <_IO_stdin_used+0x1fd>
    17d4:	48 8b 05 65 58 00 00 	mov    0x5865(%rip),%rax        # 7040 <stdin@@GLIBC_2.2.5>
    17db:	48 89 05 ce 5b 00 00 	mov    %rax,0x5bce(%rip)        # 73b0 <infile>
    17e2:	41 bd 00 00 00 00    	mov    $0x0,%r13d
    17e8:	41 be 00 00 00 00    	mov    $0x0,%r14d
    17ee:	e9 8d 00 00 00       	jmpq   1880 <main+0x100>
    17f3:	48 8d 35 cc 0b 00 00 	lea    0xbcc(%rip),%rsi        # 23c6 <sigalrmhandler>
    17fa:	bf 0e 00 00 00       	mov    $0xe,%edi
    17ff:	e8 1c fb ff ff       	callq  1320 <signal@plt>
    1804:	bf 05 00 00 00       	mov    $0x5,%edi
    1809:	e8 e2 fa ff ff       	callq  12f0 <alarm@plt>
    180e:	4c 8d 25 e0 29 00 00 	lea    0x29e0(%rip),%r12        # 41f5 <_IO_stdin_used+0x1f5>
    1815:	eb bd                	jmp    17d4 <main+0x54>
    1817:	48 8b 3b             	mov    (%rbx),%rdi
    181a:	e8 2a fd ff ff       	callq  1549 <usage>
    181f:	48 8d 35 d4 2b 00 00 	lea    0x2bd4(%rip),%rsi        # 43fa <_IO_stdin_used+0x3fa>
    1826:	48 8b 3d 1b 58 00 00 	mov    0x581b(%rip),%rdi        # 7048 <optarg@@GLIBC_2.2.5>
    182d:	e8 8e fb ff ff       	callq  13c0 <fopen@plt>
    1832:	48 89 05 77 5b 00 00 	mov    %rax,0x5b77(%rip)        # 73b0 <infile>
    1839:	48 85 c0             	test   %rax,%rax
    183c:	75 42                	jne    1880 <main+0x100>
    183e:	48 8b 0d 03 58 00 00 	mov    0x5803(%rip),%rcx        # 7048 <optarg@@GLIBC_2.2.5>
    1845:	48 8d 15 b6 29 00 00 	lea    0x29b6(%rip),%rdx        # 4202 <_IO_stdin_used+0x202>
    184c:	be 01 00 00 00       	mov    $0x1,%esi
    1851:	48 8b 3d 08 58 00 00 	mov    0x5808(%rip),%rdi        # 7060 <stderr@@GLIBC_2.2.5>
    1858:	e8 c3 fb ff ff       	callq  1420 <__fprintf_chk@plt>
    185d:	b8 01 00 00 00       	mov    $0x1,%eax
    1862:	e9 db 00 00 00       	jmpq   1942 <main+0x1c2>
    1867:	ba 10 00 00 00       	mov    $0x10,%edx
    186c:	be 00 00 00 00       	mov    $0x0,%esi
    1871:	48 8b 3d d0 57 00 00 	mov    0x57d0(%rip),%rdi        # 7048 <optarg@@GLIBC_2.2.5>
    1878:	e8 63 fb ff ff       	callq  13e0 <strtoul@plt>
    187d:	41 89 c6             	mov    %eax,%r14d
    1880:	4c 89 e2             	mov    %r12,%rdx
    1883:	48 89 de             	mov    %rbx,%rsi
    1886:	89 ef                	mov    %ebp,%edi
    1888:	e8 43 fb ff ff       	callq  13d0 <getopt@plt>
    188d:	3c ff                	cmp    $0xff,%al
    188f:	74 65                	je     18f6 <main+0x176>
    1891:	0f be c8             	movsbl %al,%ecx
    1894:	83 e8 61             	sub    $0x61,%eax
    1897:	3c 10                	cmp    $0x10,%al
    1899:	77 3b                	ja     18d6 <main+0x156>
    189b:	0f b6 c0             	movzbl %al,%eax
    189e:	48 8d 15 9b 29 00 00 	lea    0x299b(%rip),%rdx        # 4240 <_IO_stdin_used+0x240>
    18a5:	48 63 04 82          	movslq (%rdx,%rax,4),%rax
    18a9:	48 01 d0             	add    %rdx,%rax
    18ac:	3e ff e0             	notrack jmpq *%rax
    18af:	ba 0a 00 00 00       	mov    $0xa,%edx
    18b4:	be 00 00 00 00       	mov    $0x0,%esi
    18b9:	48 8b 3d 88 57 00 00 	mov    0x5788(%rip),%rdi        # 7048 <optarg@@GLIBC_2.2.5>
    18c0:	e8 8b fa ff ff       	callq  1350 <strtol@plt>
    18c5:	41 89 c5             	mov    %eax,%r13d
    18c8:	eb b6                	jmp    1880 <main+0x100>
    18ca:	c7 05 e4 5a 00 00 00 	movl   $0x0,0x5ae4(%rip)        # 73b8 <notify>
    18d1:	00 00 00 
    18d4:	eb aa                	jmp    1880 <main+0x100>
    18d6:	89 ca                	mov    %ecx,%edx
    18d8:	48 8d 35 40 29 00 00 	lea    0x2940(%rip),%rsi        # 421f <_IO_stdin_used+0x21f>
    18df:	bf 01 00 00 00       	mov    $0x1,%edi
    18e4:	b8 00 00 00 00       	mov    $0x0,%eax
    18e9:	e8 c2 fa ff ff       	callq  13b0 <__printf_chk@plt>
    18ee:	48 8b 3b             	mov    (%rbx),%rdi
    18f1:	e8 53 fc ff ff       	callq  1549 <usage>
    18f6:	be 00 00 00 00       	mov    $0x0,%esi
    18fb:	44 89 ef             	mov    %r13d,%edi
    18fe:	e8 d8 fc ff ff       	callq  15db <initialize_target>
    1903:	83 3d c2 5a 00 00 00 	cmpl   $0x0,0x5ac2(%rip)        # 73cc <is_checker>
    190a:	74 09                	je     1915 <main+0x195>
    190c:	44 39 35 b1 5a 00 00 	cmp    %r14d,0x5ab1(%rip)        # 73c4 <authkey>
    1913:	75 36                	jne    194b <main+0x1cb>
    1915:	8b 15 ad 5a 00 00    	mov    0x5aad(%rip),%edx        # 73c8 <cookie>
    191b:	48 8d 35 10 29 00 00 	lea    0x2910(%rip),%rsi        # 4232 <_IO_stdin_used+0x232>
    1922:	bf 01 00 00 00       	mov    $0x1,%edi
    1927:	b8 00 00 00 00       	mov    $0x0,%eax
    192c:	e8 7f fa ff ff       	callq  13b0 <__printf_chk@plt>
    1931:	48 8b 3d f8 56 00 00 	mov    0x56f8(%rip),%rdi        # 7030 <buf_offset>
    1938:	e8 db 0b 00 00       	callq  2518 <stable_launch>
    193d:	b8 00 00 00 00       	mov    $0x0,%eax
    1942:	5b                   	pop    %rbx
    1943:	5d                   	pop    %rbp
    1944:	41 5c                	pop    %r12
    1946:	41 5d                	pop    %r13
    1948:	41 5e                	pop    %r14
    194a:	c3                   	retq   
    194b:	44 89 f2             	mov    %r14d,%edx
    194e:	48 8d 35 03 28 00 00 	lea    0x2803(%rip),%rsi        # 4158 <_IO_stdin_used+0x158>
    1955:	bf 01 00 00 00       	mov    $0x1,%edi
    195a:	b8 00 00 00 00       	mov    $0x0,%eax
    195f:	e8 4c fa ff ff       	callq  13b0 <__printf_chk@plt>
    1964:	b8 00 00 00 00       	mov    $0x0,%eax
    1969:	e8 bd 06 00 00       	callq  202b <check_fail>
    196e:	eb a5                	jmp    1915 <main+0x195>

0000000000001970 <scramble>:
    1970:	f3 0f 1e fa          	endbr64 
    1974:	48 83 ec 38          	sub    $0x38,%rsp
    1978:	64 48 8b 04 25 28 00 	mov    %fs:0x28,%rax
    197f:	00 00 
    1981:	48 89 44 24 28       	mov    %rax,0x28(%rsp)
    1986:	31 c0                	xor    %eax,%eax
    1988:	83 f8 09             	cmp    $0x9,%eax
    198b:	77 12                	ja     199f <scramble+0x2f>
    198d:	69 d0 1b e7 00 00    	imul   $0xe71b,%eax,%edx
    1993:	01 fa                	add    %edi,%edx
    1995:	89 c1                	mov    %eax,%ecx
    1997:	89 14 8c             	mov    %edx,(%rsp,%rcx,4)
    199a:	83 c0 01             	add    $0x1,%eax
    199d:	eb e9                	jmp    1988 <scramble+0x18>
    199f:	8b 44 24 04          	mov    0x4(%rsp),%eax
    19a3:	69 c0 18 bf 00 00    	imul   $0xbf18,%eax,%eax
    19a9:	89 44 24 04          	mov    %eax,0x4(%rsp)
    19ad:	8b 44 24 0c          	mov    0xc(%rsp),%eax
    19b1:	69 c0 7a 0d 00 00    	imul   $0xd7a,%eax,%eax
    19b7:	89 44 24 0c          	mov    %eax,0xc(%rsp)
    19bb:	8b 44 24 10          	mov    0x10(%rsp),%eax
    19bf:	69 c0 a4 c2 00 00    	imul   $0xc2a4,%eax,%eax
    19c5:	89 44 24 10          	mov    %eax,0x10(%rsp)
    19c9:	8b 44 24 18          	mov    0x18(%rsp),%eax
    19cd:	69 c0 13 87 00 00    	imul   $0x8713,%eax,%eax
    19d3:	89 44 24 18          	mov    %eax,0x18(%rsp)
    19d7:	8b 04 24             	mov    (%rsp),%eax
    19da:	69 c0 3d 8b 00 00    	imul   $0x8b3d,%eax,%eax
    19e0:	89 04 24             	mov    %eax,(%rsp)
    19e3:	8b 44 24 08          	mov    0x8(%rsp),%eax
    19e7:	69 c0 13 54 00 00    	imul   $0x5413,%eax,%eax
    19ed:	89 44 24 08          	mov    %eax,0x8(%rsp)
    19f1:	8b 44 24 08          	mov    0x8(%rsp),%eax
    19f5:	69 c0 29 0a 00 00    	imul   $0xa29,%eax,%eax
    19fb:	89 44 24 08          	mov    %eax,0x8(%rsp)
    19ff:	8b 44 24 04          	mov    0x4(%rsp),%eax
    1a03:	69 c0 65 a5 00 00    	imul   $0xa565,%eax,%eax
    1a09:	89 44 24 04          	mov    %eax,0x4(%rsp)
    1a0d:	8b 04 24             	mov    (%rsp),%eax
    1a10:	69 c0 08 98 00 00    	imul   $0x9808,%eax,%eax
    1a16:	89 04 24             	mov    %eax,(%rsp)
    1a19:	8b 44 24 1c          	mov    0x1c(%rsp),%eax
    1a1d:	69 c0 9b df 00 00    	imul   $0xdf9b,%eax,%eax
    1a23:	89 44 24 1c          	mov    %eax,0x1c(%rsp)
    1a27:	8b 44 24 10          	mov    0x10(%rsp),%eax
    1a2b:	69 c0 8e 8a 00 00    	imul   $0x8a8e,%eax,%eax
    1a31:	89 44 24 10          	mov    %eax,0x10(%rsp)
    1a35:	8b 44 24 20          	mov    0x20(%rsp),%eax
    1a39:	69 c0 d8 9c 00 00    	imul   $0x9cd8,%eax,%eax
    1a3f:	89 44 24 20          	mov    %eax,0x20(%rsp)
    1a43:	8b 44 24 08          	mov    0x8(%rsp),%eax
    1a47:	69 c0 5a 15 00 00    	imul   $0x155a,%eax,%eax
    1a4d:	89 44 24 08          	mov    %eax,0x8(%rsp)
    1a51:	8b 44 24 20          	mov    0x20(%rsp),%eax
    1a55:	69 c0 24 c3 00 00    	imul   $0xc324,%eax,%eax
    1a5b:	89 44 24 20          	mov    %eax,0x20(%rsp)
    1a5f:	8b 44 24 20          	mov    0x20(%rsp),%eax
    1a63:	69 c0 e3 1d 00 00    	imul   $0x1de3,%eax,%eax
    1a69:	89 44 24 20          	mov    %eax,0x20(%rsp)
    1a6d:	8b 44 24 04          	mov    0x4(%rsp),%eax
    1a71:	69 c0 fa 45 00 00    	imul   $0x45fa,%eax,%eax
    1a77:	89 44 24 04          	mov    %eax,0x4(%rsp)
    1a7b:	8b 44 24 20          	mov    0x20(%rsp),%eax
    1a7f:	69 c0 a6 aa 00 00    	imul   $0xaaa6,%eax,%eax
    1a85:	89 44 24 20          	mov    %eax,0x20(%rsp)
    1a89:	8b 44 24 08          	mov    0x8(%rsp),%eax
    1a8d:	69 c0 86 9c 00 00    	imul   $0x9c86,%eax,%eax
    1a93:	89 44 24 08          	mov    %eax,0x8(%rsp)
    1a97:	8b 04 24             	mov    (%rsp),%eax
    1a9a:	69 c0 b3 40 00 00    	imul   $0x40b3,%eax,%eax
    1aa0:	89 04 24             	mov    %eax,(%rsp)
    1aa3:	8b 44 24 10          	mov    0x10(%rsp),%eax
    1aa7:	69 c0 82 fc 00 00    	imul   $0xfc82,%eax,%eax
    1aad:	89 44 24 10          	mov    %eax,0x10(%rsp)
    1ab1:	8b 44 24 04          	mov    0x4(%rsp),%eax
    1ab5:	69 c0 5a 51 00 00    	imul   $0x515a,%eax,%eax
    1abb:	89 44 24 04          	mov    %eax,0x4(%rsp)
    1abf:	8b 44 24 20          	mov    0x20(%rsp),%eax
    1ac3:	69 c0 6e d5 00 00    	imul   $0xd56e,%eax,%eax
    1ac9:	89 44 24 20          	mov    %eax,0x20(%rsp)
    1acd:	8b 44 24 10          	mov    0x10(%rsp),%eax
    1ad1:	69 c0 14 0a 00 00    	imul   $0xa14,%eax,%eax
    1ad7:	89 44 24 10          	mov    %eax,0x10(%rsp)
    1adb:	8b 44 24 20          	mov    0x20(%rsp),%eax
    1adf:	69 c0 01 fc 00 00    	imul   $0xfc01,%eax,%eax
    1ae5:	89 44 24 20          	mov    %eax,0x20(%rsp)
    1ae9:	8b 44 24 10          	mov    0x10(%rsp),%eax
    1aed:	69 c0 b8 6f 00 00    	imul   $0x6fb8,%eax,%eax
    1af3:	89 44 24 10          	mov    %eax,0x10(%rsp)
    1af7:	8b 44 24 24          	mov    0x24(%rsp),%eax
    1afb:	69 c0 8d b6 00 00    	imul   $0xb68d,%eax,%eax
    1b01:	89 44 24 24          	mov    %eax,0x24(%rsp)
    1b05:	8b 44 24 08          	mov    0x8(%rsp),%eax
    1b09:	69 c0 34 ef 00 00    	imul   $0xef34,%eax,%eax
    1b0f:	89 44 24 08          	mov    %eax,0x8(%rsp)
    1b13:	8b 44 24 20          	mov    0x20(%rsp),%eax
    1b17:	69 c0 3b 9c 00 00    	imul   $0x9c3b,%eax,%eax
    1b1d:	89 44 24 20          	mov    %eax,0x20(%rsp)
    1b21:	8b 44 24 1c          	mov    0x1c(%rsp),%eax
    1b25:	69 c0 6a 6b 00 00    	imul   $0x6b6a,%eax,%eax
    1b2b:	89 44 24 1c          	mov    %eax,0x1c(%rsp)
    1b2f:	8b 04 24             	mov    (%rsp),%eax
    1b32:	69 c0 6c 63 00 00    	imul   $0x636c,%eax,%eax
    1b38:	89 04 24             	mov    %eax,(%rsp)
    1b3b:	8b 44 24 08          	mov    0x8(%rsp),%eax
    1b3f:	69 c0 de c5 00 00    	imul   $0xc5de,%eax,%eax
    1b45:	89 44 24 08          	mov    %eax,0x8(%rsp)
    1b49:	8b 44 24 20          	mov    0x20(%rsp),%eax
    1b4d:	69 c0 49 66 00 00    	imul   $0x6649,%eax,%eax
    1b53:	89 44 24 20          	mov    %eax,0x20(%rsp)
    1b57:	8b 04 24             	mov    (%rsp),%eax
    1b5a:	69 c0 db fc 00 00    	imul   $0xfcdb,%eax,%eax
    1b60:	89 04 24             	mov    %eax,(%rsp)
    1b63:	8b 44 24 10          	mov    0x10(%rsp),%eax
    1b67:	69 c0 ce dd 00 00    	imul   $0xddce,%eax,%eax
    1b6d:	89 44 24 10          	mov    %eax,0x10(%rsp)
    1b71:	8b 04 24             	mov    (%rsp),%eax
    1b74:	69 c0 6a 26 00 00    	imul   $0x266a,%eax,%eax
    1b7a:	89 04 24             	mov    %eax,(%rsp)
    1b7d:	8b 44 24 08          	mov    0x8(%rsp),%eax
    1b81:	69 c0 7e 09 00 00    	imul   $0x97e,%eax,%eax
    1b87:	89 44 24 08          	mov    %eax,0x8(%rsp)
    1b8b:	8b 44 24 04          	mov    0x4(%rsp),%eax
    1b8f:	69 c0 e5 2a 00 00    	imul   $0x2ae5,%eax,%eax
    1b95:	89 44 24 04          	mov    %eax,0x4(%rsp)
    1b99:	8b 44 24 04          	mov    0x4(%rsp),%eax
    1b9d:	69 c0 48 d3 00 00    	imul   $0xd348,%eax,%eax
    1ba3:	89 44 24 04          	mov    %eax,0x4(%rsp)
    1ba7:	8b 44 24 04          	mov    0x4(%rsp),%eax
    1bab:	69 c0 c1 59 00 00    	imul   $0x59c1,%eax,%eax
    1bb1:	89 44 24 04          	mov    %eax,0x4(%rsp)
    1bb5:	8b 44 24 14          	mov    0x14(%rsp),%eax
    1bb9:	69 c0 15 d7 00 00    	imul   $0xd715,%eax,%eax
    1bbf:	89 44 24 14          	mov    %eax,0x14(%rsp)
    1bc3:	8b 44 24 1c          	mov    0x1c(%rsp),%eax
    1bc7:	69 c0 e5 aa 00 00    	imul   $0xaae5,%eax,%eax
    1bcd:	89 44 24 1c          	mov    %eax,0x1c(%rsp)
    1bd1:	8b 44 24 1c          	mov    0x1c(%rsp),%eax
    1bd5:	69 c0 c0 c3 00 00    	imul   $0xc3c0,%eax,%eax
    1bdb:	89 44 24 1c          	mov    %eax,0x1c(%rsp)
    1bdf:	8b 44 24 0c          	mov    0xc(%rsp),%eax
    1be3:	69 c0 09 e1 00 00    	imul   $0xe109,%eax,%eax
    1be9:	89 44 24 0c          	mov    %eax,0xc(%rsp)
    1bed:	8b 44 24 1c          	mov    0x1c(%rsp),%eax
    1bf1:	69 c0 a7 9e 00 00    	imul   $0x9ea7,%eax,%eax
    1bf7:	89 44 24 1c          	mov    %eax,0x1c(%rsp)
    1bfb:	8b 44 24 18          	mov    0x18(%rsp),%eax
    1bff:	69 c0 5b bf 00 00    	imul   $0xbf5b,%eax,%eax
    1c05:	89 44 24 18          	mov    %eax,0x18(%rsp)
    1c09:	8b 44 24 24          	mov    0x24(%rsp),%eax
    1c0d:	69 c0 c1 d5 00 00    	imul   $0xd5c1,%eax,%eax
    1c13:	89 44 24 24          	mov    %eax,0x24(%rsp)
    1c17:	8b 44 24 0c          	mov    0xc(%rsp),%eax
    1c1b:	69 c0 7a ab 00 00    	imul   $0xab7a,%eax,%eax
    1c21:	89 44 24 0c          	mov    %eax,0xc(%rsp)
    1c25:	8b 44 24 04          	mov    0x4(%rsp),%eax
    1c29:	69 c0 bd f5 00 00    	imul   $0xf5bd,%eax,%eax
    1c2f:	89 44 24 04          	mov    %eax,0x4(%rsp)
    1c33:	8b 44 24 24          	mov    0x24(%rsp),%eax
    1c37:	69 c0 db 3e 00 00    	imul   $0x3edb,%eax,%eax
    1c3d:	89 44 24 24          	mov    %eax,0x24(%rsp)
    1c41:	8b 44 24 14          	mov    0x14(%rsp),%eax
    1c45:	69 c0 e3 e5 00 00    	imul   $0xe5e3,%eax,%eax
    1c4b:	89 44 24 14          	mov    %eax,0x14(%rsp)
    1c4f:	8b 04 24             	mov    (%rsp),%eax
    1c52:	69 c0 db ad 00 00    	imul   $0xaddb,%eax,%eax
    1c58:	89 04 24             	mov    %eax,(%rsp)
    1c5b:	8b 44 24 08          	mov    0x8(%rsp),%eax
    1c5f:	69 c0 09 dd 00 00    	imul   $0xdd09,%eax,%eax
    1c65:	89 44 24 08          	mov    %eax,0x8(%rsp)
    1c69:	8b 44 24 08          	mov    0x8(%rsp),%eax
    1c6d:	69 c0 4f ce 00 00    	imul   $0xce4f,%eax,%eax
    1c73:	89 44 24 08          	mov    %eax,0x8(%rsp)
    1c77:	8b 44 24 08          	mov    0x8(%rsp),%eax
    1c7b:	69 c0 ba 0d 00 00    	imul   $0xdba,%eax,%eax
    1c81:	89 44 24 08          	mov    %eax,0x8(%rsp)
    1c85:	8b 44 24 14          	mov    0x14(%rsp),%eax
    1c89:	69 c0 9b 7f 00 00    	imul   $0x7f9b,%eax,%eax
    1c8f:	89 44 24 14          	mov    %eax,0x14(%rsp)
    1c93:	8b 44 24 0c          	mov    0xc(%rsp),%eax
    1c97:	69 c0 89 f1 00 00    	imul   $0xf189,%eax,%eax
    1c9d:	89 44 24 0c          	mov    %eax,0xc(%rsp)
    1ca1:	8b 44 24 10          	mov    0x10(%rsp),%eax
    1ca5:	69 c0 72 72 00 00    	imul   $0x7272,%eax,%eax
    1cab:	89 44 24 10          	mov    %eax,0x10(%rsp)
    1caf:	8b 44 24 0c          	mov    0xc(%rsp),%eax
    1cb3:	69 c0 9a c4 00 00    	imul   $0xc49a,%eax,%eax
    1cb9:	89 44 24 0c          	mov    %eax,0xc(%rsp)
    1cbd:	8b 04 24             	mov    (%rsp),%eax
    1cc0:	69 c0 45 15 00 00    	imul   $0x1545,%eax,%eax
    1cc6:	89 04 24             	mov    %eax,(%rsp)
    1cc9:	8b 44 24 08          	mov    0x8(%rsp),%eax
    1ccd:	69 c0 ef 9f 00 00    	imul   $0x9fef,%eax,%eax
    1cd3:	89 44 24 08          	mov    %eax,0x8(%rsp)
    1cd7:	8b 04 24             	mov    (%rsp),%eax
    1cda:	69 c0 56 65 00 00    	imul   $0x6556,%eax,%eax
    1ce0:	89 04 24             	mov    %eax,(%rsp)
    1ce3:	8b 44 24 20          	mov    0x20(%rsp),%eax
    1ce7:	69 c0 d9 59 00 00    	imul   $0x59d9,%eax,%eax
    1ced:	89 44 24 20          	mov    %eax,0x20(%rsp)
    1cf1:	8b 44 24 20          	mov    0x20(%rsp),%eax
    1cf5:	69 c0 bb b1 00 00    	imul   $0xb1bb,%eax,%eax
    1cfb:	89 44 24 20          	mov    %eax,0x20(%rsp)
    1cff:	8b 44 24 20          	mov    0x20(%rsp),%eax
    1d03:	69 c0 26 b9 00 00    	imul   $0xb926,%eax,%eax
    1d09:	89 44 24 20          	mov    %eax,0x20(%rsp)
    1d0d:	8b 44 24 04          	mov    0x4(%rsp),%eax
    1d11:	69 c0 21 23 00 00    	imul   $0x2321,%eax,%eax
    1d17:	89 44 24 04          	mov    %eax,0x4(%rsp)
    1d1b:	8b 44 24 20          	mov    0x20(%rsp),%eax
    1d1f:	69 c0 db 55 00 00    	imul   $0x55db,%eax,%eax
    1d25:	89 44 24 20          	mov    %eax,0x20(%rsp)
    1d29:	8b 44 24 14          	mov    0x14(%rsp),%eax
    1d2d:	69 c0 6b 8e 00 00    	imul   $0x8e6b,%eax,%eax
    1d33:	89 44 24 14          	mov    %eax,0x14(%rsp)
    1d37:	8b 44 24 20          	mov    0x20(%rsp),%eax
    1d3b:	69 c0 bd a9 00 00    	imul   $0xa9bd,%eax,%eax
    1d41:	89 44 24 20          	mov    %eax,0x20(%rsp)
    1d45:	8b 44 24 24          	mov    0x24(%rsp),%eax
    1d49:	69 c0 37 e3 00 00    	imul   $0xe337,%eax,%eax
    1d4f:	89 44 24 24          	mov    %eax,0x24(%rsp)
    1d53:	8b 44 24 10          	mov    0x10(%rsp),%eax
    1d57:	69 c0 ca 84 00 00    	imul   $0x84ca,%eax,%eax
    1d5d:	89 44 24 10          	mov    %eax,0x10(%rsp)
    1d61:	8b 04 24             	mov    (%rsp),%eax
    1d64:	69 c0 46 9c 00 00    	imul   $0x9c46,%eax,%eax
    1d6a:	89 04 24             	mov    %eax,(%rsp)
    1d6d:	b8 00 00 00 00       	mov    $0x0,%eax
    1d72:	ba 00 00 00 00       	mov    $0x0,%edx
    1d77:	83 f8 09             	cmp    $0x9,%eax
    1d7a:	77 0c                	ja     1d88 <scramble+0x418>
    1d7c:	89 c1                	mov    %eax,%ecx
    1d7e:	8b 0c 8c             	mov    (%rsp,%rcx,4),%ecx
    1d81:	01 ca                	add    %ecx,%edx
    1d83:	83 c0 01             	add    $0x1,%eax
    1d86:	eb ef                	jmp    1d77 <scramble+0x407>
    1d88:	48 8b 44 24 28       	mov    0x28(%rsp),%rax
    1d8d:	64 48 33 04 25 28 00 	xor    %fs:0x28,%rax
    1d94:	00 00 
    1d96:	75 07                	jne    1d9f <scramble+0x42f>
    1d98:	89 d0                	mov    %edx,%eax
    1d9a:	48 83 c4 38          	add    $0x38,%rsp
    1d9e:	c3                   	retq   
    1d9f:	e8 1c f5 ff ff       	callq  12c0 <__stack_chk_fail@plt>

0000000000001da4 <getbuf>:
    1da4:	f3 0f 1e fa          	endbr64 
    1da8:	48 83 ec 38          	sub    $0x38,%rsp
    1dac:	48 89 e7             	mov    %rsp,%rdi
    1daf:	e8 b5 02 00 00       	callq  2069 <Gets>
    1db4:	b8 01 00 00 00       	mov    $0x1,%eax
    1db9:	48 83 c4 38          	add    $0x38,%rsp
    1dbd:	c3                   	retq   

0000000000001dbe <touch1>:
    1dbe:	f3 0f 1e fa          	endbr64 
    1dc2:	50                   	push   %rax
    1dc3:	58                   	pop    %rax
    1dc4:	48 83 ec 08          	sub    $0x8,%rsp
    1dc8:	c7 05 ee 55 00 00 01 	movl   $0x1,0x55ee(%rip)        # 73c0 <vlevel>
    1dcf:	00 00 00 
    1dd2:	48 8d 3d c3 24 00 00 	lea    0x24c3(%rip),%rdi        # 429c <_IO_stdin_used+0x29c>
    1dd9:	e8 c2 f4 ff ff       	callq  12a0 <puts@plt>
    1dde:	bf 01 00 00 00       	mov    $0x1,%edi
    1de3:	e8 d0 03 00 00       	callq  21b8 <validate>
    1de8:	bf 00 00 00 00       	mov    $0x0,%edi
    1ded:	e8 0e f6 ff ff       	callq  1400 <exit@plt>

0000000000001df2 <touch2>:
    1df2:	f3 0f 1e fa          	endbr64 
    1df6:	50                   	push   %rax
    1df7:	58                   	pop    %rax
    1df8:	48 83 ec 08          	sub    $0x8,%rsp
    1dfc:	89 fa                	mov    %edi,%edx
    1dfe:	c7 05 b8 55 00 00 02 	movl   $0x2,0x55b8(%rip)        # 73c0 <vlevel>
    1e05:	00 00 00 
    1e08:	39 3d ba 55 00 00    	cmp    %edi,0x55ba(%rip)        # 73c8 <cookie>
    1e0e:	74 2a                	je     1e3a <touch2+0x48>
    1e10:	48 8d 35 d1 24 00 00 	lea    0x24d1(%rip),%rsi        # 42e8 <_IO_stdin_used+0x2e8>
    1e17:	bf 01 00 00 00       	mov    $0x1,%edi
    1e1c:	b8 00 00 00 00       	mov    $0x0,%eax
    1e21:	e8 8a f5 ff ff       	callq  13b0 <__printf_chk@plt>
    1e26:	bf 02 00 00 00       	mov    $0x2,%edi
    1e2b:	e8 5c 04 00 00       	callq  228c <fail>
    1e30:	bf 00 00 00 00       	mov    $0x0,%edi
    1e35:	e8 c6 f5 ff ff       	callq  1400 <exit@plt>
    1e3a:	48 8d 35 7f 24 00 00 	lea    0x247f(%rip),%rsi        # 42c0 <_IO_stdin_used+0x2c0>
    1e41:	bf 01 00 00 00       	mov    $0x1,%edi
    1e46:	b8 00 00 00 00       	mov    $0x0,%eax
    1e4b:	e8 60 f5 ff ff       	callq  13b0 <__printf_chk@plt>
    1e50:	bf 02 00 00 00       	mov    $0x2,%edi
    1e55:	e8 5e 03 00 00       	callq  21b8 <validate>
    1e5a:	eb d4                	jmp    1e30 <touch2+0x3e>

0000000000001e5c <hexmatch>:
    1e5c:	f3 0f 1e fa          	endbr64 
    1e60:	41 55                	push   %r13
    1e62:	41 54                	push   %r12
    1e64:	55                   	push   %rbp
    1e65:	53                   	push   %rbx
    1e66:	48 81 ec 88 00 00 00 	sub    $0x88,%rsp
    1e6d:	89 fd                	mov    %edi,%ebp
    1e6f:	48 89 f3             	mov    %rsi,%rbx
    1e72:	41 bc 28 00 00 00    	mov    $0x28,%r12d
    1e78:	64 49 8b 04 24       	mov    %fs:(%r12),%rax
    1e7d:	48 89 44 24 78       	mov    %rax,0x78(%rsp)
    1e82:	31 c0                	xor    %eax,%eax
    1e84:	e8 f7 f4 ff ff       	callq  1380 <random@plt>
    1e89:	48 89 c1             	mov    %rax,%rcx
    1e8c:	48 ba 0b d7 a3 70 3d 	movabs $0xa3d70a3d70a3d70b,%rdx
    1e93:	0a d7 a3 
    1e96:	48 f7 ea             	imul   %rdx
    1e99:	48 01 ca             	add    %rcx,%rdx
    1e9c:	48 c1 fa 06          	sar    $0x6,%rdx
    1ea0:	48 89 c8             	mov    %rcx,%rax
    1ea3:	48 c1 f8 3f          	sar    $0x3f,%rax
    1ea7:	48 29 c2             	sub    %rax,%rdx
    1eaa:	48 8d 04 92          	lea    (%rdx,%rdx,4),%rax
    1eae:	48 8d 04 80          	lea    (%rax,%rax,4),%rax
    1eb2:	48 c1 e0 02          	shl    $0x2,%rax
    1eb6:	48 29 c1             	sub    %rax,%rcx
    1eb9:	4c 8d 2c 0c          	lea    (%rsp,%rcx,1),%r13
    1ebd:	41 89 e8             	mov    %ebp,%r8d
    1ec0:	48 8d 0d f2 23 00 00 	lea    0x23f2(%rip),%rcx        # 42b9 <_IO_stdin_used+0x2b9>
    1ec7:	48 c7 c2 ff ff ff ff 	mov    $0xffffffffffffffff,%rdx
    1ece:	be 01 00 00 00       	mov    $0x1,%esi
    1ed3:	4c 89 ef             	mov    %r13,%rdi
    1ed6:	b8 00 00 00 00       	mov    $0x0,%eax
    1edb:	e8 60 f5 ff ff       	callq  1440 <__sprintf_chk@plt>
    1ee0:	ba 09 00 00 00       	mov    $0x9,%edx
    1ee5:	4c 89 ee             	mov    %r13,%rsi
    1ee8:	48 89 df             	mov    %rbx,%rdi
    1eeb:	e8 90 f3 ff ff       	callq  1280 <strncmp@plt>
    1ef0:	85 c0                	test   %eax,%eax
    1ef2:	0f 94 c0             	sete   %al
    1ef5:	48 8b 5c 24 78       	mov    0x78(%rsp),%rbx
    1efa:	64 49 33 1c 24       	xor    %fs:(%r12),%rbx
    1eff:	75 11                	jne    1f12 <hexmatch+0xb6>
    1f01:	0f b6 c0             	movzbl %al,%eax
    1f04:	48 81 c4 88 00 00 00 	add    $0x88,%rsp
    1f0b:	5b                   	pop    %rbx
    1f0c:	5d                   	pop    %rbp
    1f0d:	41 5c                	pop    %r12
    1f0f:	41 5d                	pop    %r13
    1f11:	c3                   	retq   
    1f12:	e8 a9 f3 ff ff       	callq  12c0 <__stack_chk_fail@plt>

0000000000001f17 <touch3>:
    1f17:	f3 0f 1e fa          	endbr64 
    1f1b:	53                   	push   %rbx
    1f1c:	48 89 fb             	mov    %rdi,%rbx
    1f1f:	c7 05 97 54 00 00 03 	movl   $0x3,0x5497(%rip)        # 73c0 <vlevel>
    1f26:	00 00 00 
    1f29:	48 89 fe             	mov    %rdi,%rsi
    1f2c:	8b 3d 96 54 00 00    	mov    0x5496(%rip),%edi        # 73c8 <cookie>
    1f32:	e8 25 ff ff ff       	callq  1e5c <hexmatch>
    1f37:	85 c0                	test   %eax,%eax
    1f39:	74 2d                	je     1f68 <touch3+0x51>
    1f3b:	48 89 da             	mov    %rbx,%rdx
    1f3e:	48 8d 35 cb 23 00 00 	lea    0x23cb(%rip),%rsi        # 4310 <_IO_stdin_used+0x310>
    1f45:	bf 01 00 00 00       	mov    $0x1,%edi
    1f4a:	b8 00 00 00 00       	mov    $0x0,%eax
    1f4f:	e8 5c f4 ff ff       	callq  13b0 <__printf_chk@plt>
    1f54:	bf 03 00 00 00       	mov    $0x3,%edi
    1f59:	e8 5a 02 00 00       	callq  21b8 <validate>
    1f5e:	bf 00 00 00 00       	mov    $0x0,%edi
    1f63:	e8 98 f4 ff ff       	callq  1400 <exit@plt>
    1f68:	48 89 da             	mov    %rbx,%rdx
    1f6b:	48 8d 35 c6 23 00 00 	lea    0x23c6(%rip),%rsi        # 4338 <_IO_stdin_used+0x338>
    1f72:	bf 01 00 00 00       	mov    $0x1,%edi
    1f77:	b8 00 00 00 00       	mov    $0x0,%eax
    1f7c:	e8 2f f4 ff ff       	callq  13b0 <__printf_chk@plt>
    1f81:	bf 03 00 00 00       	mov    $0x3,%edi
    1f86:	e8 01 03 00 00       	callq  228c <fail>
    1f8b:	eb d1                	jmp    1f5e <touch3+0x47>

0000000000001f8d <test>:
    1f8d:	f3 0f 1e fa          	endbr64 
    1f91:	48 83 ec 08          	sub    $0x8,%rsp
    1f95:	b8 00 00 00 00       	mov    $0x0,%eax
    1f9a:	e8 05 fe ff ff       	callq  1da4 <getbuf>
    1f9f:	89 c2                	mov    %eax,%edx
    1fa1:	48 8d 35 b8 23 00 00 	lea    0x23b8(%rip),%rsi        # 4360 <_IO_stdin_used+0x360>
    1fa8:	bf 01 00 00 00       	mov    $0x1,%edi
    1fad:	b8 00 00 00 00       	mov    $0x0,%eax
    1fb2:	e8 f9 f3 ff ff       	callq  13b0 <__printf_chk@plt>
    1fb7:	48 83 c4 08          	add    $0x8,%rsp
    1fbb:	c3                   	retq   

0000000000001fbc <save_char>:
    1fbc:	8b 05 22 60 00 00    	mov    0x6022(%rip),%eax        # 7fe4 <gets_cnt>
    1fc2:	3d ff 03 00 00       	cmp    $0x3ff,%eax
    1fc7:	7f 4a                	jg     2013 <save_char+0x57>
    1fc9:	89 f9                	mov    %edi,%ecx
    1fcb:	c0 e9 04             	shr    $0x4,%cl
    1fce:	8d 14 40             	lea    (%rax,%rax,2),%edx
    1fd1:	4c 8d 05 f8 25 00 00 	lea    0x25f8(%rip),%r8        # 45d0 <trans_char>
    1fd8:	83 e1 0f             	and    $0xf,%ecx
    1fdb:	45 0f b6 0c 08       	movzbl (%r8,%rcx,1),%r9d
    1fe0:	48 8d 0d f9 53 00 00 	lea    0x53f9(%rip),%rcx        # 73e0 <gets_buf>
    1fe7:	48 63 f2             	movslq %edx,%rsi
    1fea:	44 88 0c 31          	mov    %r9b,(%rcx,%rsi,1)
    1fee:	8d 72 01             	lea    0x1(%rdx),%esi
    1ff1:	83 e7 0f             	and    $0xf,%edi
    1ff4:	41 0f b6 3c 38       	movzbl (%r8,%rdi,1),%edi
    1ff9:	48 63 f6             	movslq %esi,%rsi
    1ffc:	40 88 3c 31          	mov    %dil,(%rcx,%rsi,1)
    2000:	83 c2 02             	add    $0x2,%edx
    2003:	48 63 d2             	movslq %edx,%rdx
    2006:	c6 04 11 20          	movb   $0x20,(%rcx,%rdx,1)
    200a:	83 c0 01             	add    $0x1,%eax
    200d:	89 05 d1 5f 00 00    	mov    %eax,0x5fd1(%rip)        # 7fe4 <gets_cnt>
    2013:	c3                   	retq   

0000000000002014 <save_term>:
    2014:	8b 05 ca 5f 00 00    	mov    0x5fca(%rip),%eax        # 7fe4 <gets_cnt>
    201a:	8d 04 40             	lea    (%rax,%rax,2),%eax
    201d:	48 98                	cltq   
    201f:	48 8d 15 ba 53 00 00 	lea    0x53ba(%rip),%rdx        # 73e0 <gets_buf>
    2026:	c6 04 02 00          	movb   $0x0,(%rdx,%rax,1)
    202a:	c3                   	retq   

000000000000202b <check_fail>:
    202b:	f3 0f 1e fa          	endbr64 
    202f:	50                   	push   %rax
    2030:	58                   	pop    %rax
    2031:	48 83 ec 08          	sub    $0x8,%rsp
    2035:	0f be 15 ac 5f 00 00 	movsbl 0x5fac(%rip),%edx        # 7fe8 <target_prefix>
    203c:	4c 8d 05 9d 53 00 00 	lea    0x539d(%rip),%r8        # 73e0 <gets_buf>
    2043:	8b 0d 73 53 00 00    	mov    0x5373(%rip),%ecx        # 73bc <check_level>
    2049:	48 8d 35 33 23 00 00 	lea    0x2333(%rip),%rsi        # 4383 <_IO_stdin_used+0x383>
    2050:	bf 01 00 00 00       	mov    $0x1,%edi
    2055:	b8 00 00 00 00       	mov    $0x0,%eax
    205a:	e8 51 f3 ff ff       	callq  13b0 <__printf_chk@plt>
    205f:	bf 01 00 00 00       	mov    $0x1,%edi
    2064:	e8 97 f3 ff ff       	callq  1400 <exit@plt>

0000000000002069 <Gets>:
    2069:	f3 0f 1e fa          	endbr64 
    206d:	41 54                	push   %r12
    206f:	55                   	push   %rbp
    2070:	53                   	push   %rbx
    2071:	49 89 fc             	mov    %rdi,%r12
    2074:	c7 05 66 5f 00 00 00 	movl   $0x0,0x5f66(%rip)        # 7fe4 <gets_cnt>
    207b:	00 00 00 
    207e:	48 89 fb             	mov    %rdi,%rbx
    2081:	48 8b 3d 28 53 00 00 	mov    0x5328(%rip),%rdi        # 73b0 <infile>
    2088:	e8 a3 f3 ff ff       	callq  1430 <getc@plt>
    208d:	83 f8 ff             	cmp    $0xffffffff,%eax
    2090:	74 18                	je     20aa <Gets+0x41>
    2092:	83 f8 0a             	cmp    $0xa,%eax
    2095:	74 13                	je     20aa <Gets+0x41>
    2097:	48 8d 6b 01          	lea    0x1(%rbx),%rbp
    209b:	88 03                	mov    %al,(%rbx)
    209d:	0f b6 f8             	movzbl %al,%edi
    20a0:	e8 17 ff ff ff       	callq  1fbc <save_char>
    20a5:	48 89 eb             	mov    %rbp,%rbx
    20a8:	eb d7                	jmp    2081 <Gets+0x18>
    20aa:	c6 03 00             	movb   $0x0,(%rbx)
    20ad:	b8 00 00 00 00       	mov    $0x0,%eax
    20b2:	e8 5d ff ff ff       	callq  2014 <save_term>
    20b7:	4c 89 e0             	mov    %r12,%rax
    20ba:	5b                   	pop    %rbx
    20bb:	5d                   	pop    %rbp
    20bc:	41 5c                	pop    %r12
    20be:	c3                   	retq   

00000000000020bf <notify_server>:
    20bf:	f3 0f 1e fa          	endbr64 
    20c3:	53                   	push   %rbx
    20c4:	48 81 ec 00 10 00 00 	sub    $0x1000,%rsp
    20cb:	48 83 0c 24 00       	orq    $0x0,(%rsp)
    20d0:	48 81 ec 00 10 00 00 	sub    $0x1000,%rsp
    20d7:	48 83 0c 24 00       	orq    $0x0,(%rsp)
    20dc:	48 83 ec 10          	sub    $0x10,%rsp
    20e0:	64 48 8b 04 25 28 00 	mov    %fs:0x28,%rax
    20e7:	00 00 
    20e9:	48 89 84 24 08 20 00 	mov    %rax,0x2008(%rsp)
    20f0:	00 
    20f1:	31 c0                	xor    %eax,%eax
    20f3:	83 3d d2 52 00 00 00 	cmpl   $0x0,0x52d2(%rip)        # 73cc <is_checker>
    20fa:	0f 85 8e 00 00 00    	jne    218e <notify_server+0xcf>
    2100:	81 3d da 5e 00 00 9c 	cmpl   $0x1f9c,0x5eda(%rip)        # 7fe4 <gets_cnt>
    2107:	1f 00 00 
    210a:	7f 18                	jg     2124 <notify_server+0x65>
    210c:	0f be 05 d5 5e 00 00 	movsbl 0x5ed5(%rip),%eax        # 7fe8 <target_prefix>
    2113:	83 3d 9e 52 00 00 00 	cmpl   $0x0,0x529e(%rip)        # 73b8 <notify>
    211a:	74 23                	je     213f <notify_server+0x80>
    211c:	8b 15 a2 52 00 00    	mov    0x52a2(%rip),%edx        # 73c4 <authkey>
    2122:	eb 20                	jmp    2144 <notify_server+0x85>
    2124:	48 8d 35 3d 23 00 00 	lea    0x233d(%rip),%rsi        # 4468 <_IO_stdin_used+0x468>
    212b:	bf 01 00 00 00       	mov    $0x1,%edi
    2130:	e8 7b f2 ff ff       	callq  13b0 <__printf_chk@plt>
    2135:	bf 01 00 00 00       	mov    $0x1,%edi
    213a:	e8 c1 f2 ff ff       	callq  1400 <exit@plt>
    213f:	ba ff ff ff ff       	mov    $0xffffffff,%edx
    2144:	85 ff                	test   %edi,%edi
    2146:	74 62                	je     21aa <notify_server+0xeb>
    2148:	48 8d 1d 4f 22 00 00 	lea    0x224f(%rip),%rbx        # 439e <_IO_stdin_used+0x39e>
    214f:	48 89 e7             	mov    %rsp,%rdi
    2152:	48 8d 0d 87 52 00 00 	lea    0x5287(%rip),%rcx        # 73e0 <gets_buf>
    2159:	51                   	push   %rcx
    215a:	56                   	push   %rsi
    215b:	50                   	push   %rax
    215c:	52                   	push   %rdx
    215d:	49 89 d9             	mov    %rbx,%r9
    2160:	44 8b 05 a9 4e 00 00 	mov    0x4ea9(%rip),%r8d        # 7010 <target_id>
    2167:	48 8d 0d 35 22 00 00 	lea    0x2235(%rip),%rcx        # 43a3 <_IO_stdin_used+0x3a3>
    216e:	ba 00 20 00 00       	mov    $0x2000,%edx
    2173:	be 01 00 00 00       	mov    $0x1,%esi
    2178:	b8 00 00 00 00       	mov    $0x0,%eax
    217d:	e8 be f2 ff ff       	callq  1440 <__sprintf_chk@plt>
    2182:	48 83 c4 20          	add    $0x20,%rsp
    2186:	48 89 df             	mov    %rbx,%rdi
    2189:	e8 12 f1 ff ff       	callq  12a0 <puts@plt>
    218e:	48 8b 84 24 08 20 00 	mov    0x2008(%rsp),%rax
    2195:	00 
    2196:	64 48 33 04 25 28 00 	xor    %fs:0x28,%rax
    219d:	00 00 
    219f:	75 12                	jne    21b3 <notify_server+0xf4>
    21a1:	48 81 c4 10 20 00 00 	add    $0x2010,%rsp
    21a8:	5b                   	pop    %rbx
    21a9:	c3                   	retq   
    21aa:	48 8d 1d e8 21 00 00 	lea    0x21e8(%rip),%rbx        # 4399 <_IO_stdin_used+0x399>
    21b1:	eb 9c                	jmp    214f <notify_server+0x90>
    21b3:	e8 08 f1 ff ff       	callq  12c0 <__stack_chk_fail@plt>

00000000000021b8 <validate>:
    21b8:	f3 0f 1e fa          	endbr64 
    21bc:	53                   	push   %rbx
    21bd:	89 fb                	mov    %edi,%ebx
    21bf:	83 3d 06 52 00 00 00 	cmpl   $0x0,0x5206(%rip)        # 73cc <is_checker>
    21c6:	74 72                	je     223a <validate+0x82>
    21c8:	39 3d f2 51 00 00    	cmp    %edi,0x51f2(%rip)        # 73c0 <vlevel>
    21ce:	75 32                	jne    2202 <validate+0x4a>
    21d0:	8b 15 e6 51 00 00    	mov    0x51e6(%rip),%edx        # 73bc <check_level>
    21d6:	39 fa                	cmp    %edi,%edx
    21d8:	75 3e                	jne    2218 <validate+0x60>
    21da:	0f be 15 07 5e 00 00 	movsbl 0x5e07(%rip),%edx        # 7fe8 <target_prefix>
    21e1:	4c 8d 05 f8 51 00 00 	lea    0x51f8(%rip),%r8        # 73e0 <gets_buf>
    21e8:	89 f9                	mov    %edi,%ecx
    21ea:	48 8d 35 ec 21 00 00 	lea    0x21ec(%rip),%rsi        # 43dd <_IO_stdin_used+0x3dd>
    21f1:	bf 01 00 00 00       	mov    $0x1,%edi
    21f6:	b8 00 00 00 00       	mov    $0x0,%eax
    21fb:	e8 b0 f1 ff ff       	callq  13b0 <__printf_chk@plt>
    2200:	5b                   	pop    %rbx
    2201:	c3                   	retq   
    2202:	48 8d 3d b6 21 00 00 	lea    0x21b6(%rip),%rdi        # 43bf <_IO_stdin_used+0x3bf>
    2209:	e8 92 f0 ff ff       	callq  12a0 <puts@plt>
    220e:	b8 00 00 00 00       	mov    $0x0,%eax
    2213:	e8 13 fe ff ff       	callq  202b <check_fail>
    2218:	89 f9                	mov    %edi,%ecx
    221a:	48 8d 35 77 22 00 00 	lea    0x2277(%rip),%rsi        # 4498 <_IO_stdin_used+0x498>
    2221:	bf 01 00 00 00       	mov    $0x1,%edi
    2226:	b8 00 00 00 00       	mov    $0x0,%eax
    222b:	e8 80 f1 ff ff       	callq  13b0 <__printf_chk@plt>
    2230:	b8 00 00 00 00       	mov    $0x0,%eax
    2235:	e8 f1 fd ff ff       	callq  202b <check_fail>
    223a:	39 3d 80 51 00 00    	cmp    %edi,0x5180(%rip)        # 73c0 <vlevel>
    2240:	74 1a                	je     225c <validate+0xa4>
    2242:	48 8d 3d 76 21 00 00 	lea    0x2176(%rip),%rdi        # 43bf <_IO_stdin_used+0x3bf>
    2249:	e8 52 f0 ff ff       	callq  12a0 <puts@plt>
    224e:	89 de                	mov    %ebx,%esi
    2250:	bf 00 00 00 00       	mov    $0x0,%edi
    2255:	e8 65 fe ff ff       	callq  20bf <notify_server>
    225a:	eb a4                	jmp    2200 <validate+0x48>
    225c:	0f be 0d 85 5d 00 00 	movsbl 0x5d85(%rip),%ecx        # 7fe8 <target_prefix>
    2263:	89 fa                	mov    %edi,%edx
    2265:	48 8d 35 54 22 00 00 	lea    0x2254(%rip),%rsi        # 44c0 <_IO_stdin_used+0x4c0>
    226c:	bf 01 00 00 00       	mov    $0x1,%edi
    2271:	b8 00 00 00 00       	mov    $0x0,%eax
    2276:	e8 35 f1 ff ff       	callq  13b0 <__printf_chk@plt>
    227b:	89 de                	mov    %ebx,%esi
    227d:	bf 01 00 00 00       	mov    $0x1,%edi
    2282:	e8 38 fe ff ff       	callq  20bf <notify_server>
    2287:	e9 74 ff ff ff       	jmpq   2200 <validate+0x48>

000000000000228c <fail>:
    228c:	f3 0f 1e fa          	endbr64 
    2290:	48 83 ec 08          	sub    $0x8,%rsp
    2294:	83 3d 31 51 00 00 00 	cmpl   $0x0,0x5131(%rip)        # 73cc <is_checker>
    229b:	75 11                	jne    22ae <fail+0x22>
    229d:	89 fe                	mov    %edi,%esi
    229f:	bf 00 00 00 00       	mov    $0x0,%edi
    22a4:	e8 16 fe ff ff       	callq  20bf <notify_server>
    22a9:	48 83 c4 08          	add    $0x8,%rsp
    22ad:	c3                   	retq   
    22ae:	b8 00 00 00 00       	mov    $0x0,%eax
    22b3:	e8 73 fd ff ff       	callq  202b <check_fail>

00000000000022b8 <bushandler>:
    22b8:	f3 0f 1e fa          	endbr64 
    22bc:	50                   	push   %rax
    22bd:	58                   	pop    %rax
    22be:	48 83 ec 08          	sub    $0x8,%rsp
    22c2:	83 3d 03 51 00 00 00 	cmpl   $0x0,0x5103(%rip)        # 73cc <is_checker>
    22c9:	74 16                	je     22e1 <bushandler+0x29>
    22cb:	48 8d 3d 20 21 00 00 	lea    0x2120(%rip),%rdi        # 43f2 <_IO_stdin_used+0x3f2>
    22d2:	e8 c9 ef ff ff       	callq  12a0 <puts@plt>
    22d7:	b8 00 00 00 00       	mov    $0x0,%eax
    22dc:	e8 4a fd ff ff       	callq  202b <check_fail>
    22e1:	48 8d 3d 10 22 00 00 	lea    0x2210(%rip),%rdi        # 44f8 <_IO_stdin_used+0x4f8>
    22e8:	e8 b3 ef ff ff       	callq  12a0 <puts@plt>
    22ed:	48 8d 3d 08 21 00 00 	lea    0x2108(%rip),%rdi        # 43fc <_IO_stdin_used+0x3fc>
    22f4:	e8 a7 ef ff ff       	callq  12a0 <puts@plt>
    22f9:	be 00 00 00 00       	mov    $0x0,%esi
    22fe:	bf 00 00 00 00       	mov    $0x0,%edi
    2303:	e8 b7 fd ff ff       	callq  20bf <notify_server>
    2308:	bf 01 00 00 00       	mov    $0x1,%edi
    230d:	e8 ee f0 ff ff       	callq  1400 <exit@plt>

0000000000002312 <seghandler>:
    2312:	f3 0f 1e fa          	endbr64 
    2316:	50                   	push   %rax
    2317:	58                   	pop    %rax
    2318:	48 83 ec 08          	sub    $0x8,%rsp
    231c:	83 3d a9 50 00 00 00 	cmpl   $0x0,0x50a9(%rip)        # 73cc <is_checker>
    2323:	74 16                	je     233b <seghandler+0x29>
    2325:	48 8d 3d e6 20 00 00 	lea    0x20e6(%rip),%rdi        # 4412 <_IO_stdin_used+0x412>
    232c:	e8 6f ef ff ff       	callq  12a0 <puts@plt>
    2331:	b8 00 00 00 00       	mov    $0x0,%eax
    2336:	e8 f0 fc ff ff       	callq  202b <check_fail>
    233b:	48 8d 3d d6 21 00 00 	lea    0x21d6(%rip),%rdi        # 4518 <_IO_stdin_used+0x518>
    2342:	e8 59 ef ff ff       	callq  12a0 <puts@plt>
    2347:	48 8d 3d ae 20 00 00 	lea    0x20ae(%rip),%rdi        # 43fc <_IO_stdin_used+0x3fc>
    234e:	e8 4d ef ff ff       	callq  12a0 <puts@plt>
    2353:	be 00 00 00 00       	mov    $0x0,%esi
    2358:	bf 00 00 00 00       	mov    $0x0,%edi
    235d:	e8 5d fd ff ff       	callq  20bf <notify_server>
    2362:	bf 01 00 00 00       	mov    $0x1,%edi
    2367:	e8 94 f0 ff ff       	callq  1400 <exit@plt>

000000000000236c <illegalhandler>:
    236c:	f3 0f 1e fa          	endbr64 
    2370:	50                   	push   %rax
    2371:	58                   	pop    %rax
    2372:	48 83 ec 08          	sub    $0x8,%rsp
    2376:	83 3d 4f 50 00 00 00 	cmpl   $0x0,0x504f(%rip)        # 73cc <is_checker>
    237d:	74 16                	je     2395 <illegalhandler+0x29>
    237f:	48 8d 3d 9f 20 00 00 	lea    0x209f(%rip),%rdi        # 4425 <_IO_stdin_used+0x425>
    2386:	e8 15 ef ff ff       	callq  12a0 <puts@plt>
    238b:	b8 00 00 00 00       	mov    $0x0,%eax
    2390:	e8 96 fc ff ff       	callq  202b <check_fail>
    2395:	48 8d 3d a4 21 00 00 	lea    0x21a4(%rip),%rdi        # 4540 <_IO_stdin_used+0x540>
    239c:	e8 ff ee ff ff       	callq  12a0 <puts@plt>
    23a1:	48 8d 3d 54 20 00 00 	lea    0x2054(%rip),%rdi        # 43fc <_IO_stdin_used+0x3fc>
    23a8:	e8 f3 ee ff ff       	callq  12a0 <puts@plt>
    23ad:	be 00 00 00 00       	mov    $0x0,%esi
    23b2:	bf 00 00 00 00       	mov    $0x0,%edi
    23b7:	e8 03 fd ff ff       	callq  20bf <notify_server>
    23bc:	bf 01 00 00 00       	mov    $0x1,%edi
    23c1:	e8 3a f0 ff ff       	callq  1400 <exit@plt>

00000000000023c6 <sigalrmhandler>:
    23c6:	f3 0f 1e fa          	endbr64 
    23ca:	50                   	push   %rax
    23cb:	58                   	pop    %rax
    23cc:	48 83 ec 08          	sub    $0x8,%rsp
    23d0:	83 3d f5 4f 00 00 00 	cmpl   $0x0,0x4ff5(%rip)        # 73cc <is_checker>
    23d7:	74 16                	je     23ef <sigalrmhandler+0x29>
    23d9:	48 8d 3d 59 20 00 00 	lea    0x2059(%rip),%rdi        # 4439 <_IO_stdin_used+0x439>
    23e0:	e8 bb ee ff ff       	callq  12a0 <puts@plt>
    23e5:	b8 00 00 00 00       	mov    $0x0,%eax
    23ea:	e8 3c fc ff ff       	callq  202b <check_fail>
    23ef:	ba 05 00 00 00       	mov    $0x5,%edx
    23f4:	48 8d 35 75 21 00 00 	lea    0x2175(%rip),%rsi        # 4570 <_IO_stdin_used+0x570>
    23fb:	bf 01 00 00 00       	mov    $0x1,%edi
    2400:	b8 00 00 00 00       	mov    $0x0,%eax
    2405:	e8 a6 ef ff ff       	callq  13b0 <__printf_chk@plt>
    240a:	be 00 00 00 00       	mov    $0x0,%esi
    240f:	bf 00 00 00 00       	mov    $0x0,%edi
    2414:	e8 a6 fc ff ff       	callq  20bf <notify_server>
    2419:	bf 01 00 00 00       	mov    $0x1,%edi
    241e:	e8 dd ef ff ff       	callq  1400 <exit@plt>

0000000000002423 <launch>:
    2423:	f3 0f 1e fa          	endbr64 
    2427:	55                   	push   %rbp
    2428:	48 89 e5             	mov    %rsp,%rbp
    242b:	48 83 ec 10          	sub    $0x10,%rsp
    242f:	48 89 fa             	mov    %rdi,%rdx
    2432:	64 48 8b 04 25 28 00 	mov    %fs:0x28,%rax
    2439:	00 00 
    243b:	48 89 45 f8          	mov    %rax,-0x8(%rbp)
    243f:	31 c0                	xor    %eax,%eax
    2441:	48 8d 47 17          	lea    0x17(%rdi),%rax
    2445:	48 89 c1             	mov    %rax,%rcx
    2448:	48 83 e1 f0          	and    $0xfffffffffffffff0,%rcx
    244c:	48 25 00 f0 ff ff    	and    $0xfffffffffffff000,%rax
    2452:	48 89 e6             	mov    %rsp,%rsi
    2455:	48 29 c6             	sub    %rax,%rsi
    2458:	48 89 f0             	mov    %rsi,%rax
    245b:	48 39 c4             	cmp    %rax,%rsp
    245e:	74 12                	je     2472 <launch+0x4f>
    2460:	48 81 ec 00 10 00 00 	sub    $0x1000,%rsp
    2467:	48 83 8c 24 f8 0f 00 	orq    $0x0,0xff8(%rsp)
    246e:	00 00 
    2470:	eb e9                	jmp    245b <launch+0x38>
    2472:	48 89 c8             	mov    %rcx,%rax
    2475:	25 ff 0f 00 00       	and    $0xfff,%eax
    247a:	48 29 c4             	sub    %rax,%rsp
    247d:	48 85 c0             	test   %rax,%rax
    2480:	74 06                	je     2488 <launch+0x65>
    2482:	48 83 4c 04 f8 00    	orq    $0x0,-0x8(%rsp,%rax,1)
    2488:	48 8d 7c 24 0f       	lea    0xf(%rsp),%rdi
    248d:	48 83 e7 f0          	and    $0xfffffffffffffff0,%rdi
    2491:	be f4 00 00 00       	mov    $0xf4,%esi
    2496:	e8 45 ee ff ff       	callq  12e0 <memset@plt>
    249b:	48 8b 05 9e 4b 00 00 	mov    0x4b9e(%rip),%rax        # 7040 <stdin@@GLIBC_2.2.5>
    24a2:	48 39 05 07 4f 00 00 	cmp    %rax,0x4f07(%rip)        # 73b0 <infile>
    24a9:	74 3a                	je     24e5 <launch+0xc2>
    24ab:	c7 05 0b 4f 00 00 00 	movl   $0x0,0x4f0b(%rip)        # 73c0 <vlevel>
    24b2:	00 00 00 
    24b5:	b8 00 00 00 00       	mov    $0x0,%eax
    24ba:	e8 ce fa ff ff       	callq  1f8d <test>
    24bf:	83 3d 06 4f 00 00 00 	cmpl   $0x0,0x4f06(%rip)        # 73cc <is_checker>
    24c6:	75 35                	jne    24fd <launch+0xda>
    24c8:	48 8d 3d 8a 1f 00 00 	lea    0x1f8a(%rip),%rdi        # 4459 <_IO_stdin_used+0x459>
    24cf:	e8 cc ed ff ff       	callq  12a0 <puts@plt>
    24d4:	48 8b 45 f8          	mov    -0x8(%rbp),%rax
    24d8:	64 48 33 04 25 28 00 	xor    %fs:0x28,%rax
    24df:	00 00 
    24e1:	75 30                	jne    2513 <launch+0xf0>
    24e3:	c9                   	leaveq 
    24e4:	c3                   	retq   
    24e5:	48 8d 35 55 1f 00 00 	lea    0x1f55(%rip),%rsi        # 4441 <_IO_stdin_used+0x441>
    24ec:	bf 01 00 00 00       	mov    $0x1,%edi
    24f1:	b8 00 00 00 00       	mov    $0x0,%eax
    24f6:	e8 b5 ee ff ff       	callq  13b0 <__printf_chk@plt>
    24fb:	eb ae                	jmp    24ab <launch+0x88>
    24fd:	48 8d 3d 4a 1f 00 00 	lea    0x1f4a(%rip),%rdi        # 444e <_IO_stdin_used+0x44e>
    2504:	e8 97 ed ff ff       	callq  12a0 <puts@plt>
    2509:	b8 00 00 00 00       	mov    $0x0,%eax
    250e:	e8 18 fb ff ff       	callq  202b <check_fail>
    2513:	e8 a8 ed ff ff       	callq  12c0 <__stack_chk_fail@plt>

0000000000002518 <stable_launch>:
    2518:	f3 0f 1e fa          	endbr64 
    251c:	53                   	push   %rbx
    251d:	48 89 3d 84 4e 00 00 	mov    %rdi,0x4e84(%rip)        # 73a8 <global_offset>
    2524:	41 b9 00 00 00 00    	mov    $0x0,%r9d
    252a:	41 b8 00 00 00 00    	mov    $0x0,%r8d
    2530:	b9 32 01 00 00       	mov    $0x132,%ecx
    2535:	ba 07 00 00 00       	mov    $0x7,%edx
    253a:	be 00 00 10 00       	mov    $0x100000,%esi
    253f:	bf 00 60 58 55       	mov    $0x55586000,%edi
    2544:	e8 87 ed ff ff       	callq  12d0 <mmap@plt>
    2549:	48 89 c3             	mov    %rax,%rbx
    254c:	48 3d 00 60 58 55    	cmp    $0x55586000,%rax
    2552:	75 43                	jne    2597 <stable_launch+0x7f>
    2554:	48 8d 90 f8 ff 0f 00 	lea    0xffff8(%rax),%rdx
    255b:	48 89 15 8e 5a 00 00 	mov    %rdx,0x5a8e(%rip)        # 7ff0 <stack_top>
    2562:	48 89 e0             	mov    %rsp,%rax
    2565:	48 89 d4             	mov    %rdx,%rsp
    2568:	48 89 c2             	mov    %rax,%rdx
    256b:	48 89 15 2e 4e 00 00 	mov    %rdx,0x4e2e(%rip)        # 73a0 <global_save_stack>
    2572:	48 8b 3d 2f 4e 00 00 	mov    0x4e2f(%rip),%rdi        # 73a8 <global_offset>
    2579:	e8 a5 fe ff ff       	callq  2423 <launch>
    257e:	48 8b 05 1b 4e 00 00 	mov    0x4e1b(%rip),%rax        # 73a0 <global_save_stack>
    2585:	48 89 c4             	mov    %rax,%rsp
    2588:	be 00 00 10 00       	mov    $0x100000,%esi
    258d:	48 89 df             	mov    %rbx,%rdi
    2590:	e8 0b ee ff ff       	callq  13a0 <munmap@plt>
    2595:	5b                   	pop    %rbx
    2596:	c3                   	retq   
    2597:	be 00 00 10 00       	mov    $0x100000,%esi
    259c:	48 89 c7             	mov    %rax,%rdi
    259f:	e8 fc ed ff ff       	callq  13a0 <munmap@plt>
    25a4:	b9 00 60 58 55       	mov    $0x55586000,%ecx
    25a9:	48 8d 15 f8 1f 00 00 	lea    0x1ff8(%rip),%rdx        # 45a8 <_IO_stdin_used+0x5a8>
    25b0:	be 01 00 00 00       	mov    $0x1,%esi
    25b5:	48 8b 3d a4 4a 00 00 	mov    0x4aa4(%rip),%rdi        # 7060 <stderr@@GLIBC_2.2.5>
    25bc:	b8 00 00 00 00       	mov    $0x0,%eax
    25c1:	e8 5a ee ff ff       	callq  1420 <__fprintf_chk@plt>
    25c6:	bf 01 00 00 00       	mov    $0x1,%edi
    25cb:	e8 30 ee ff ff       	callq  1400 <exit@plt>

00000000000025d0 <rio_readinitb>:
    25d0:	89 37                	mov    %esi,(%rdi)
    25d2:	c7 47 04 00 00 00 00 	movl   $0x0,0x4(%rdi)
    25d9:	48 8d 47 10          	lea    0x10(%rdi),%rax
    25dd:	48 89 47 08          	mov    %rax,0x8(%rdi)
    25e1:	c3                   	retq   

00000000000025e2 <sigalrm_handler>:
    25e2:	f3 0f 1e fa          	endbr64 
    25e6:	50                   	push   %rax
    25e7:	58                   	pop    %rax
    25e8:	48 83 ec 08          	sub    $0x8,%rsp
    25ec:	b9 00 00 00 00       	mov    $0x0,%ecx
    25f1:	48 8d 15 e8 1f 00 00 	lea    0x1fe8(%rip),%rdx        # 45e0 <trans_char+0x10>
    25f8:	be 01 00 00 00       	mov    $0x1,%esi
    25fd:	48 8b 3d 5c 4a 00 00 	mov    0x4a5c(%rip),%rdi        # 7060 <stderr@@GLIBC_2.2.5>
    2604:	b8 00 00 00 00       	mov    $0x0,%eax
    2609:	e8 12 ee ff ff       	callq  1420 <__fprintf_chk@plt>
    260e:	bf 01 00 00 00       	mov    $0x1,%edi
    2613:	e8 e8 ed ff ff       	callq  1400 <exit@plt>

0000000000002618 <rio_writen>:
    2618:	41 55                	push   %r13
    261a:	41 54                	push   %r12
    261c:	55                   	push   %rbp
    261d:	53                   	push   %rbx
    261e:	48 83 ec 08          	sub    $0x8,%rsp
    2622:	41 89 fc             	mov    %edi,%r12d
    2625:	48 89 f5             	mov    %rsi,%rbp
    2628:	49 89 d5             	mov    %rdx,%r13
    262b:	48 89 d3             	mov    %rdx,%rbx
    262e:	eb 06                	jmp    2636 <rio_writen+0x1e>
    2630:	48 29 c3             	sub    %rax,%rbx
    2633:	48 01 c5             	add    %rax,%rbp
    2636:	48 85 db             	test   %rbx,%rbx
    2639:	74 24                	je     265f <rio_writen+0x47>
    263b:	48 89 da             	mov    %rbx,%rdx
    263e:	48 89 ee             	mov    %rbp,%rsi
    2641:	44 89 e7             	mov    %r12d,%edi
    2644:	e8 67 ec ff ff       	callq  12b0 <write@plt>
    2649:	48 85 c0             	test   %rax,%rax
    264c:	7f e2                	jg     2630 <rio_writen+0x18>
    264e:	e8 0d ec ff ff       	callq  1260 <__errno_location@plt>
    2653:	83 38 04             	cmpl   $0x4,(%rax)
    2656:	75 15                	jne    266d <rio_writen+0x55>
    2658:	b8 00 00 00 00       	mov    $0x0,%eax
    265d:	eb d1                	jmp    2630 <rio_writen+0x18>
    265f:	4c 89 e8             	mov    %r13,%rax
    2662:	48 83 c4 08          	add    $0x8,%rsp
    2666:	5b                   	pop    %rbx
    2667:	5d                   	pop    %rbp
    2668:	41 5c                	pop    %r12
    266a:	41 5d                	pop    %r13
    266c:	c3                   	retq   
    266d:	48 c7 c0 ff ff ff ff 	mov    $0xffffffffffffffff,%rax
    2674:	eb ec                	jmp    2662 <rio_writen+0x4a>

0000000000002676 <rio_read>:
    2676:	41 55                	push   %r13
    2678:	41 54                	push   %r12
    267a:	55                   	push   %rbp
    267b:	53                   	push   %rbx
    267c:	48 83 ec 08          	sub    $0x8,%rsp
    2680:	48 89 fb             	mov    %rdi,%rbx
    2683:	49 89 f5             	mov    %rsi,%r13
    2686:	49 89 d4             	mov    %rdx,%r12
    2689:	eb 17                	jmp    26a2 <rio_read+0x2c>
    268b:	e8 d0 eb ff ff       	callq  1260 <__errno_location@plt>
    2690:	83 38 04             	cmpl   $0x4,(%rax)
    2693:	74 0d                	je     26a2 <rio_read+0x2c>
    2695:	48 c7 c0 ff ff ff ff 	mov    $0xffffffffffffffff,%rax
    269c:	eb 54                	jmp    26f2 <rio_read+0x7c>
    269e:	48 89 6b 08          	mov    %rbp,0x8(%rbx)
    26a2:	8b 6b 04             	mov    0x4(%rbx),%ebp
    26a5:	85 ed                	test   %ebp,%ebp
    26a7:	7f 23                	jg     26cc <rio_read+0x56>
    26a9:	48 8d 6b 10          	lea    0x10(%rbx),%rbp
    26ad:	8b 3b                	mov    (%rbx),%edi
    26af:	ba 00 20 00 00       	mov    $0x2000,%edx
    26b4:	48 89 ee             	mov    %rbp,%rsi
    26b7:	e8 54 ec ff ff       	callq  1310 <read@plt>
    26bc:	89 43 04             	mov    %eax,0x4(%rbx)
    26bf:	85 c0                	test   %eax,%eax
    26c1:	78 c8                	js     268b <rio_read+0x15>
    26c3:	75 d9                	jne    269e <rio_read+0x28>
    26c5:	b8 00 00 00 00       	mov    $0x0,%eax
    26ca:	eb 26                	jmp    26f2 <rio_read+0x7c>
    26cc:	89 e8                	mov    %ebp,%eax
    26ce:	4c 39 e0             	cmp    %r12,%rax
    26d1:	72 03                	jb     26d6 <rio_read+0x60>
    26d3:	44 89 e5             	mov    %r12d,%ebp
    26d6:	4c 63 e5             	movslq %ebp,%r12
    26d9:	48 8b 73 08          	mov    0x8(%rbx),%rsi
    26dd:	4c 89 e2             	mov    %r12,%rdx
    26e0:	4c 89 ef             	mov    %r13,%rdi
    26e3:	e8 78 ec ff ff       	callq  1360 <memcpy@plt>
    26e8:	4c 01 63 08          	add    %r12,0x8(%rbx)
    26ec:	29 6b 04             	sub    %ebp,0x4(%rbx)
    26ef:	4c 89 e0             	mov    %r12,%rax
    26f2:	48 83 c4 08          	add    $0x8,%rsp
    26f6:	5b                   	pop    %rbx
    26f7:	5d                   	pop    %rbp
    26f8:	41 5c                	pop    %r12
    26fa:	41 5d                	pop    %r13
    26fc:	c3                   	retq   

00000000000026fd <rio_readlineb>:
    26fd:	41 55                	push   %r13
    26ff:	41 54                	push   %r12
    2701:	55                   	push   %rbp
    2702:	53                   	push   %rbx
    2703:	48 83 ec 18          	sub    $0x18,%rsp
    2707:	49 89 fd             	mov    %rdi,%r13
    270a:	48 89 f5             	mov    %rsi,%rbp
    270d:	49 89 d4             	mov    %rdx,%r12
    2710:	64 48 8b 04 25 28 00 	mov    %fs:0x28,%rax
    2717:	00 00 
    2719:	48 89 44 24 08       	mov    %rax,0x8(%rsp)
    271e:	31 c0                	xor    %eax,%eax
    2720:	bb 01 00 00 00       	mov    $0x1,%ebx
    2725:	eb 18                	jmp    273f <rio_readlineb+0x42>
    2727:	85 c0                	test   %eax,%eax
    2729:	75 65                	jne    2790 <rio_readlineb+0x93>
    272b:	48 83 fb 01          	cmp    $0x1,%rbx
    272f:	75 3d                	jne    276e <rio_readlineb+0x71>
    2731:	b8 00 00 00 00       	mov    $0x0,%eax
    2736:	eb 3d                	jmp    2775 <rio_readlineb+0x78>
    2738:	48 83 c3 01          	add    $0x1,%rbx
    273c:	48 89 d5             	mov    %rdx,%rbp
    273f:	4c 39 e3             	cmp    %r12,%rbx
    2742:	73 2a                	jae    276e <rio_readlineb+0x71>
    2744:	48 8d 74 24 07       	lea    0x7(%rsp),%rsi
    2749:	ba 01 00 00 00       	mov    $0x1,%edx
    274e:	4c 89 ef             	mov    %r13,%rdi
    2751:	e8 20 ff ff ff       	callq  2676 <rio_read>
    2756:	83 f8 01             	cmp    $0x1,%eax
    2759:	75 cc                	jne    2727 <rio_readlineb+0x2a>
    275b:	48 8d 55 01          	lea    0x1(%rbp),%rdx
    275f:	0f b6 44 24 07       	movzbl 0x7(%rsp),%eax
    2764:	88 45 00             	mov    %al,0x0(%rbp)
    2767:	3c 0a                	cmp    $0xa,%al
    2769:	75 cd                	jne    2738 <rio_readlineb+0x3b>
    276b:	48 89 d5             	mov    %rdx,%rbp
    276e:	c6 45 00 00          	movb   $0x0,0x0(%rbp)
    2772:	48 89 d8             	mov    %rbx,%rax
    2775:	48 8b 4c 24 08       	mov    0x8(%rsp),%rcx
    277a:	64 48 33 0c 25 28 00 	xor    %fs:0x28,%rcx
    2781:	00 00 
    2783:	75 14                	jne    2799 <rio_readlineb+0x9c>
    2785:	48 83 c4 18          	add    $0x18,%rsp
    2789:	5b                   	pop    %rbx
    278a:	5d                   	pop    %rbp
    278b:	41 5c                	pop    %r12
    278d:	41 5d                	pop    %r13
    278f:	c3                   	retq   
    2790:	48 c7 c0 ff ff ff ff 	mov    $0xffffffffffffffff,%rax
    2797:	eb dc                	jmp    2775 <rio_readlineb+0x78>
    2799:	e8 22 eb ff ff       	callq  12c0 <__stack_chk_fail@plt>

000000000000279e <urlencode>:
    279e:	41 54                	push   %r12
    27a0:	55                   	push   %rbp
    27a1:	53                   	push   %rbx
    27a2:	48 83 ec 10          	sub    $0x10,%rsp
    27a6:	48 89 fb             	mov    %rdi,%rbx
    27a9:	48 89 f5             	mov    %rsi,%rbp
    27ac:	64 48 8b 04 25 28 00 	mov    %fs:0x28,%rax
    27b3:	00 00 
    27b5:	48 89 44 24 08       	mov    %rax,0x8(%rsp)
    27ba:	31 c0                	xor    %eax,%eax
    27bc:	48 c7 c1 ff ff ff ff 	mov    $0xffffffffffffffff,%rcx
    27c3:	f2 ae                	repnz scas %es:(%rdi),%al
    27c5:	48 f7 d1             	not    %rcx
    27c8:	8d 41 ff             	lea    -0x1(%rcx),%eax
    27cb:	eb 0f                	jmp    27dc <urlencode+0x3e>
    27cd:	44 88 45 00          	mov    %r8b,0x0(%rbp)
    27d1:	48 8d 6d 01          	lea    0x1(%rbp),%rbp
    27d5:	48 83 c3 01          	add    $0x1,%rbx
    27d9:	44 89 e0             	mov    %r12d,%eax
    27dc:	44 8d 60 ff          	lea    -0x1(%rax),%r12d
    27e0:	85 c0                	test   %eax,%eax
    27e2:	0f 84 a8 00 00 00    	je     2890 <urlencode+0xf2>
    27e8:	44 0f b6 03          	movzbl (%rbx),%r8d
    27ec:	41 80 f8 2a          	cmp    $0x2a,%r8b
    27f0:	0f 94 c2             	sete   %dl
    27f3:	41 80 f8 2d          	cmp    $0x2d,%r8b
    27f7:	0f 94 c0             	sete   %al
    27fa:	08 c2                	or     %al,%dl
    27fc:	75 cf                	jne    27cd <urlencode+0x2f>
    27fe:	41 80 f8 2e          	cmp    $0x2e,%r8b
    2802:	74 c9                	je     27cd <urlencode+0x2f>
    2804:	41 80 f8 5f          	cmp    $0x5f,%r8b
    2808:	74 c3                	je     27cd <urlencode+0x2f>
    280a:	41 8d 40 d0          	lea    -0x30(%r8),%eax
    280e:	3c 09                	cmp    $0x9,%al
    2810:	76 bb                	jbe    27cd <urlencode+0x2f>
    2812:	41 8d 40 bf          	lea    -0x41(%r8),%eax
    2816:	3c 19                	cmp    $0x19,%al
    2818:	76 b3                	jbe    27cd <urlencode+0x2f>
    281a:	41 8d 40 9f          	lea    -0x61(%r8),%eax
    281e:	3c 19                	cmp    $0x19,%al
    2820:	76 ab                	jbe    27cd <urlencode+0x2f>
    2822:	41 80 f8 20          	cmp    $0x20,%r8b
    2826:	74 56                	je     287e <urlencode+0xe0>
    2828:	41 8d 40 e0          	lea    -0x20(%r8),%eax
    282c:	3c 5f                	cmp    $0x5f,%al
    282e:	0f 96 c2             	setbe  %dl
    2831:	41 80 f8 09          	cmp    $0x9,%r8b
    2835:	0f 94 c0             	sete   %al
    2838:	08 c2                	or     %al,%dl
    283a:	74 4f                	je     288b <urlencode+0xed>
    283c:	48 89 e7             	mov    %rsp,%rdi
    283f:	45 0f b6 c0          	movzbl %r8b,%r8d
    2843:	48 8d 0d 2b 1e 00 00 	lea    0x1e2b(%rip),%rcx        # 4675 <trans_char+0xa5>
    284a:	ba 08 00 00 00       	mov    $0x8,%edx
    284f:	be 01 00 00 00       	mov    $0x1,%esi
    2854:	b8 00 00 00 00       	mov    $0x0,%eax
    2859:	e8 e2 eb ff ff       	callq  1440 <__sprintf_chk@plt>
    285e:	0f b6 04 24          	movzbl (%rsp),%eax
    2862:	88 45 00             	mov    %al,0x0(%rbp)
    2865:	0f b6 44 24 01       	movzbl 0x1(%rsp),%eax
    286a:	88 45 01             	mov    %al,0x1(%rbp)
    286d:	0f b6 44 24 02       	movzbl 0x2(%rsp),%eax
    2872:	88 45 02             	mov    %al,0x2(%rbp)
    2875:	48 8d 6d 03          	lea    0x3(%rbp),%rbp
    2879:	e9 57 ff ff ff       	jmpq   27d5 <urlencode+0x37>
    287e:	c6 45 00 2b          	movb   $0x2b,0x0(%rbp)
    2882:	48 8d 6d 01          	lea    0x1(%rbp),%rbp
    2886:	e9 4a ff ff ff       	jmpq   27d5 <urlencode+0x37>
    288b:	b8 ff ff ff ff       	mov    $0xffffffff,%eax
    2890:	48 8b 74 24 08       	mov    0x8(%rsp),%rsi
    2895:	64 48 33 34 25 28 00 	xor    %fs:0x28,%rsi
    289c:	00 00 
    289e:	75 09                	jne    28a9 <urlencode+0x10b>
    28a0:	48 83 c4 10          	add    $0x10,%rsp
    28a4:	5b                   	pop    %rbx
    28a5:	5d                   	pop    %rbp
    28a6:	41 5c                	pop    %r12
    28a8:	c3                   	retq   
    28a9:	e8 12 ea ff ff       	callq  12c0 <__stack_chk_fail@plt>

00000000000028ae <submitr>:
    28ae:	f3 0f 1e fa          	endbr64 
    28b2:	41 57                	push   %r15
    28b4:	41 56                	push   %r14
    28b6:	41 55                	push   %r13
    28b8:	41 54                	push   %r12
    28ba:	55                   	push   %rbp
    28bb:	53                   	push   %rbx
    28bc:	4c 8d 9c 24 00 60 ff 	lea    -0xa000(%rsp),%r11
    28c3:	ff 
    28c4:	48 81 ec 00 10 00 00 	sub    $0x1000,%rsp
    28cb:	48 83 0c 24 00       	orq    $0x0,(%rsp)
    28d0:	4c 39 dc             	cmp    %r11,%rsp
    28d3:	75 ef                	jne    28c4 <submitr+0x16>
    28d5:	48 83 ec 68          	sub    $0x68,%rsp
    28d9:	49 89 fc             	mov    %rdi,%r12
    28dc:	89 74 24 14          	mov    %esi,0x14(%rsp)
    28e0:	49 89 d6             	mov    %rdx,%r14
    28e3:	48 89 4c 24 08       	mov    %rcx,0x8(%rsp)
    28e8:	4c 89 44 24 18       	mov    %r8,0x18(%rsp)
    28ed:	4d 89 cd             	mov    %r9,%r13
    28f0:	48 8b ac 24 a0 a0 00 	mov    0xa0a0(%rsp),%rbp
    28f7:	00 
    28f8:	64 48 8b 04 25 28 00 	mov    %fs:0x28,%rax
    28ff:	00 00 
    2901:	48 89 84 24 58 a0 00 	mov    %rax,0xa058(%rsp)
    2908:	00 
    2909:	31 c0                	xor    %eax,%eax
    290b:	c7 44 24 2c 00 00 00 	movl   $0x0,0x2c(%rsp)
    2912:	00 
    2913:	ba 00 00 00 00       	mov    $0x0,%edx
    2918:	be 01 00 00 00       	mov    $0x1,%esi
    291d:	bf 02 00 00 00       	mov    $0x2,%edi
    2922:	e8 29 eb ff ff       	callq  1450 <socket@plt>
    2927:	85 c0                	test   %eax,%eax
    2929:	0f 88 a0 02 00 00    	js     2bcf <submitr+0x321>
    292f:	89 c3                	mov    %eax,%ebx
    2931:	4c 89 e7             	mov    %r12,%rdi
    2934:	e8 f7 e9 ff ff       	callq  1330 <gethostbyname@plt>
    2939:	48 85 c0             	test   %rax,%rax
    293c:	0f 84 d9 02 00 00    	je     2c1b <submitr+0x36d>
    2942:	4c 8d 7c 24 30       	lea    0x30(%rsp),%r15
    2947:	48 c7 44 24 30 00 00 	movq   $0x0,0x30(%rsp)
    294e:	00 00 
    2950:	48 c7 44 24 38 00 00 	movq   $0x0,0x38(%rsp)
    2957:	00 00 
    2959:	66 c7 44 24 30 02 00 	movw   $0x2,0x30(%rsp)
    2960:	48 63 50 14          	movslq 0x14(%rax),%rdx
    2964:	48 8b 40 18          	mov    0x18(%rax),%rax
    2968:	48 8b 30             	mov    (%rax),%rsi
    296b:	48 8d 7c 24 34       	lea    0x34(%rsp),%rdi
    2970:	b9 0c 00 00 00       	mov    $0xc,%ecx
    2975:	e8 c6 e9 ff ff       	callq  1340 <__memmove_chk@plt>
    297a:	0f b7 74 24 14       	movzwl 0x14(%rsp),%esi
    297f:	66 c1 c6 08          	rol    $0x8,%si
    2983:	66 89 74 24 32       	mov    %si,0x32(%rsp)
    2988:	ba 10 00 00 00       	mov    $0x10,%edx
    298d:	4c 89 fe             	mov    %r15,%rsi
    2990:	89 df                	mov    %ebx,%edi
    2992:	e8 79 ea ff ff       	callq  1410 <connect@plt>
    2997:	85 c0                	test   %eax,%eax
    2999:	0f 88 e4 02 00 00    	js     2c83 <submitr+0x3d5>
    299f:	49 c7 c0 ff ff ff ff 	mov    $0xffffffffffffffff,%r8
    29a6:	b8 00 00 00 00       	mov    $0x0,%eax
    29ab:	4c 89 c1             	mov    %r8,%rcx
    29ae:	4c 89 ef             	mov    %r13,%rdi
    29b1:	f2 ae                	repnz scas %es:(%rdi),%al
    29b3:	48 89 ca             	mov    %rcx,%rdx
    29b6:	48 f7 d2             	not    %rdx
    29b9:	4c 89 c1             	mov    %r8,%rcx
    29bc:	4c 89 f7             	mov    %r14,%rdi
    29bf:	f2 ae                	repnz scas %es:(%rdi),%al
    29c1:	48 f7 d1             	not    %rcx
    29c4:	48 89 ce             	mov    %rcx,%rsi
    29c7:	4c 89 c1             	mov    %r8,%rcx
    29ca:	48 8b 7c 24 08       	mov    0x8(%rsp),%rdi
    29cf:	f2 ae                	repnz scas %es:(%rdi),%al
    29d1:	48 f7 d1             	not    %rcx
    29d4:	48 8d 74 0e fe       	lea    -0x2(%rsi,%rcx,1),%rsi
    29d9:	4c 89 c1             	mov    %r8,%rcx
    29dc:	48 8b 7c 24 18       	mov    0x18(%rsp),%rdi
    29e1:	f2 ae                	repnz scas %es:(%rdi),%al
    29e3:	48 89 c8             	mov    %rcx,%rax
    29e6:	48 f7 d0             	not    %rax
    29e9:	48 8d 4c 06 ff       	lea    -0x1(%rsi,%rax,1),%rcx
    29ee:	48 8d 44 52 fd       	lea    -0x3(%rdx,%rdx,2),%rax
    29f3:	48 8d 84 01 80 00 00 	lea    0x80(%rcx,%rax,1),%rax
    29fa:	00 
    29fb:	48 3d 00 20 00 00    	cmp    $0x2000,%rax
    2a01:	0f 87 d6 02 00 00    	ja     2cdd <submitr+0x42f>
    2a07:	48 8d b4 24 50 40 00 	lea    0x4050(%rsp),%rsi
    2a0e:	00 
    2a0f:	b9 00 04 00 00       	mov    $0x400,%ecx
    2a14:	b8 00 00 00 00       	mov    $0x0,%eax
    2a19:	48 89 f7             	mov    %rsi,%rdi
    2a1c:	f3 48 ab             	rep stos %rax,%es:(%rdi)
    2a1f:	4c 89 ef             	mov    %r13,%rdi
    2a22:	e8 77 fd ff ff       	callq  279e <urlencode>
    2a27:	85 c0                	test   %eax,%eax
    2a29:	0f 88 21 03 00 00    	js     2d50 <submitr+0x4a2>
    2a2f:	4c 8d bc 24 50 20 00 	lea    0x2050(%rsp),%r15
    2a36:	00 
    2a37:	41 54                	push   %r12
    2a39:	48 8d 84 24 58 40 00 	lea    0x4058(%rsp),%rax
    2a40:	00 
    2a41:	50                   	push   %rax
    2a42:	4d 89 f1             	mov    %r14,%r9
    2a45:	4c 8b 44 24 18       	mov    0x18(%rsp),%r8
    2a4a:	48 8d 0d b7 1b 00 00 	lea    0x1bb7(%rip),%rcx        # 4608 <trans_char+0x38>
    2a51:	ba 00 20 00 00       	mov    $0x2000,%edx
    2a56:	be 01 00 00 00       	mov    $0x1,%esi
    2a5b:	4c 89 ff             	mov    %r15,%rdi
    2a5e:	b8 00 00 00 00       	mov    $0x0,%eax
    2a63:	e8 d8 e9 ff ff       	callq  1440 <__sprintf_chk@plt>
    2a68:	48 c7 c1 ff ff ff ff 	mov    $0xffffffffffffffff,%rcx
    2a6f:	b8 00 00 00 00       	mov    $0x0,%eax
    2a74:	4c 89 ff             	mov    %r15,%rdi
    2a77:	f2 ae                	repnz scas %es:(%rdi),%al
    2a79:	48 f7 d1             	not    %rcx
    2a7c:	48 8d 51 ff          	lea    -0x1(%rcx),%rdx
    2a80:	4c 89 fe             	mov    %r15,%rsi
    2a83:	89 df                	mov    %ebx,%edi
    2a85:	e8 8e fb ff ff       	callq  2618 <rio_writen>
    2a8a:	48 83 c4 10          	add    $0x10,%rsp
    2a8e:	48 85 c0             	test   %rax,%rax
    2a91:	0f 88 44 03 00 00    	js     2ddb <submitr+0x52d>
    2a97:	4c 8d 64 24 40       	lea    0x40(%rsp),%r12
    2a9c:	89 de                	mov    %ebx,%esi
    2a9e:	4c 89 e7             	mov    %r12,%rdi
    2aa1:	e8 2a fb ff ff       	callq  25d0 <rio_readinitb>
    2aa6:	48 8d b4 24 50 20 00 	lea    0x2050(%rsp),%rsi
    2aad:	00 
    2aae:	ba 00 20 00 00       	mov    $0x2000,%edx
    2ab3:	4c 89 e7             	mov    %r12,%rdi
    2ab6:	e8 42 fc ff ff       	callq  26fd <rio_readlineb>
    2abb:	48 85 c0             	test   %rax,%rax
    2abe:	0f 8e 86 03 00 00    	jle    2e4a <submitr+0x59c>
    2ac4:	48 8d 4c 24 2c       	lea    0x2c(%rsp),%rcx
    2ac9:	48 8d 94 24 50 60 00 	lea    0x6050(%rsp),%rdx
    2ad0:	00 
    2ad1:	48 8d bc 24 50 20 00 	lea    0x2050(%rsp),%rdi
    2ad8:	00 
    2ad9:	4c 8d 84 24 50 80 00 	lea    0x8050(%rsp),%r8
    2ae0:	00 
    2ae1:	48 8d 35 94 1b 00 00 	lea    0x1b94(%rip),%rsi        # 467c <trans_char+0xac>
    2ae8:	b8 00 00 00 00       	mov    $0x0,%eax
    2aed:	e8 9e e8 ff ff       	callq  1390 <__isoc99_sscanf@plt>
    2af2:	48 8d b4 24 50 20 00 	lea    0x2050(%rsp),%rsi
    2af9:	00 
    2afa:	b9 03 00 00 00       	mov    $0x3,%ecx
    2aff:	48 8d 3d 8d 1b 00 00 	lea    0x1b8d(%rip),%rdi        # 4693 <trans_char+0xc3>
    2b06:	f3 a6                	repz cmpsb %es:(%rdi),%ds:(%rsi)
    2b08:	0f 97 c0             	seta   %al
    2b0b:	1c 00                	sbb    $0x0,%al
    2b0d:	84 c0                	test   %al,%al
    2b0f:	0f 84 b3 03 00 00    	je     2ec8 <submitr+0x61a>
    2b15:	48 8d b4 24 50 20 00 	lea    0x2050(%rsp),%rsi
    2b1c:	00 
    2b1d:	48 8d 7c 24 40       	lea    0x40(%rsp),%rdi
    2b22:	ba 00 20 00 00       	mov    $0x2000,%edx
    2b27:	e8 d1 fb ff ff       	callq  26fd <rio_readlineb>
    2b2c:	48 85 c0             	test   %rax,%rax
    2b2f:	7f c1                	jg     2af2 <submitr+0x244>
    2b31:	48 b8 45 72 72 6f 72 	movabs $0x43203a726f727245,%rax
    2b38:	3a 20 43 
    2b3b:	48 ba 6c 69 65 6e 74 	movabs $0x6e7520746e65696c,%rdx
    2b42:	20 75 6e 
    2b45:	48 89 45 00          	mov    %rax,0x0(%rbp)
    2b49:	48 89 55 08          	mov    %rdx,0x8(%rbp)
    2b4d:	48 b8 61 62 6c 65 20 	movabs $0x206f7420656c6261,%rax
    2b54:	74 6f 20 
    2b57:	48 ba 72 65 61 64 20 	movabs $0x6165682064616572,%rdx
    2b5e:	68 65 61 
    2b61:	48 89 45 10          	mov    %rax,0x10(%rbp)
    2b65:	48 89 55 18          	mov    %rdx,0x18(%rbp)
    2b69:	48 b8 64 65 72 73 20 	movabs $0x6f72662073726564,%rax
    2b70:	66 72 6f 
    2b73:	48 ba 6d 20 74 68 65 	movabs $0x657220656874206d,%rdx
    2b7a:	20 72 65 
    2b7d:	48 89 45 20          	mov    %rax,0x20(%rbp)
    2b81:	48 89 55 28          	mov    %rdx,0x28(%rbp)
    2b85:	48 b8 73 75 6c 74 20 	movabs $0x72657320746c7573,%rax
    2b8c:	73 65 72 
    2b8f:	48 89 45 30          	mov    %rax,0x30(%rbp)
    2b93:	c7 45 38 76 65 72 00 	movl   $0x726576,0x38(%rbp)
    2b9a:	89 df                	mov    %ebx,%edi
    2b9c:	e8 5f e7 ff ff       	callq  1300 <close@plt>
    2ba1:	b8 ff ff ff ff       	mov    $0xffffffff,%eax
    2ba6:	48 8b 9c 24 58 a0 00 	mov    0xa058(%rsp),%rbx
    2bad:	00 
    2bae:	64 48 33 1c 25 28 00 	xor    %fs:0x28,%rbx
    2bb5:	00 00 
    2bb7:	0f 85 7e 04 00 00    	jne    303b <submitr+0x78d>
    2bbd:	48 81 c4 68 a0 00 00 	add    $0xa068,%rsp
    2bc4:	5b                   	pop    %rbx
    2bc5:	5d                   	pop    %rbp
    2bc6:	41 5c                	pop    %r12
    2bc8:	41 5d                	pop    %r13
    2bca:	41 5e                	pop    %r14
    2bcc:	41 5f                	pop    %r15
    2bce:	c3                   	retq   
    2bcf:	48 b8 45 72 72 6f 72 	movabs $0x43203a726f727245,%rax
    2bd6:	3a 20 43 
    2bd9:	48 ba 6c 69 65 6e 74 	movabs $0x6e7520746e65696c,%rdx
    2be0:	20 75 6e 
    2be3:	48 89 45 00          	mov    %rax,0x0(%rbp)
    2be7:	48 89 55 08          	mov    %rdx,0x8(%rbp)
    2beb:	48 b8 61 62 6c 65 20 	movabs $0x206f7420656c6261,%rax
    2bf2:	74 6f 20 
    2bf5:	48 ba 63 72 65 61 74 	movabs $0x7320657461657263,%rdx
    2bfc:	65 20 73 
    2bff:	48 89 45 10          	mov    %rax,0x10(%rbp)
    2c03:	48 89 55 18          	mov    %rdx,0x18(%rbp)
    2c07:	c7 45 20 6f 63 6b 65 	movl   $0x656b636f,0x20(%rbp)
    2c0e:	66 c7 45 24 74 00    	movw   $0x74,0x24(%rbp)
    2c14:	b8 ff ff ff ff       	mov    $0xffffffff,%eax
    2c19:	eb 8b                	jmp    2ba6 <submitr+0x2f8>
    2c1b:	48 b8 45 72 72 6f 72 	movabs $0x44203a726f727245,%rax
    2c22:	3a 20 44 
    2c25:	48 ba 4e 53 20 69 73 	movabs $0x6e7520736920534e,%rdx
    2c2c:	20 75 6e 
    2c2f:	48 89 45 00          	mov    %rax,0x0(%rbp)
    2c33:	48 89 55 08          	mov    %rdx,0x8(%rbp)
    2c37:	48 b8 61 62 6c 65 20 	movabs $0x206f7420656c6261,%rax
    2c3e:	74 6f 20 
    2c41:	48 ba 72 65 73 6f 6c 	movabs $0x2065766c6f736572,%rdx
    2c48:	76 65 20 
    2c4b:	48 89 45 10          	mov    %rax,0x10(%rbp)
    2c4f:	48 89 55 18          	mov    %rdx,0x18(%rbp)
    2c53:	48 b8 73 65 72 76 65 	movabs $0x6120726576726573,%rax
    2c5a:	72 20 61 
    2c5d:	48 89 45 20          	mov    %rax,0x20(%rbp)
    2c61:	c7 45 28 64 64 72 65 	movl   $0x65726464,0x28(%rbp)
    2c68:	66 c7 45 2c 73 73    	movw   $0x7373,0x2c(%rbp)
    2c6e:	c6 45 2e 00          	movb   $0x0,0x2e(%rbp)
    2c72:	89 df                	mov    %ebx,%edi
    2c74:	e8 87 e6 ff ff       	callq  1300 <close@plt>
    2c79:	b8 ff ff ff ff       	mov    $0xffffffff,%eax
    2c7e:	e9 23 ff ff ff       	jmpq   2ba6 <submitr+0x2f8>
    2c83:	48 b8 45 72 72 6f 72 	movabs $0x55203a726f727245,%rax
    2c8a:	3a 20 55 
    2c8d:	48 ba 6e 61 62 6c 65 	movabs $0x6f7420656c62616e,%rdx
    2c94:	20 74 6f 
    2c97:	48 89 45 00          	mov    %rax,0x0(%rbp)
    2c9b:	48 89 55 08          	mov    %rdx,0x8(%rbp)
    2c9f:	48 b8 20 63 6f 6e 6e 	movabs $0x7463656e6e6f6320,%rax
    2ca6:	65 63 74 
    2ca9:	48 ba 20 74 6f 20 74 	movabs $0x20656874206f7420,%rdx
    2cb0:	68 65 20 
    2cb3:	48 89 45 10          	mov    %rax,0x10(%rbp)
    2cb7:	48 89 55 18          	mov    %rdx,0x18(%rbp)
    2cbb:	c7 45 20 73 65 72 76 	movl   $0x76726573,0x20(%rbp)
    2cc2:	66 c7 45 24 65 72    	movw   $0x7265,0x24(%rbp)
    2cc8:	c6 45 26 00          	movb   $0x0,0x26(%rbp)
    2ccc:	89 df                	mov    %ebx,%edi
    2cce:	e8 2d e6 ff ff       	callq  1300 <close@plt>
    2cd3:	b8 ff ff ff ff       	mov    $0xffffffff,%eax
    2cd8:	e9 c9 fe ff ff       	jmpq   2ba6 <submitr+0x2f8>
    2cdd:	48 b8 45 72 72 6f 72 	movabs $0x52203a726f727245,%rax
    2ce4:	3a 20 52 
    2ce7:	48 ba 65 73 75 6c 74 	movabs $0x747320746c757365,%rdx
    2cee:	20 73 74 
    2cf1:	48 89 45 00          	mov    %rax,0x0(%rbp)
    2cf5:	48 89 55 08          	mov    %rdx,0x8(%rbp)
    2cf9:	48 b8 72 69 6e 67 20 	movabs $0x6f6f7420676e6972,%rax
    2d00:	74 6f 6f 
    2d03:	48 ba 20 6c 61 72 67 	movabs $0x202e656772616c20,%rdx
    2d0a:	65 2e 20 
    2d0d:	48 89 45 10          	mov    %rax,0x10(%rbp)
    2d11:	48 89 55 18          	mov    %rdx,0x18(%rbp)
    2d15:	48 b8 49 6e 63 72 65 	movabs $0x6573616572636e49,%rax
    2d1c:	61 73 65 
    2d1f:	48 ba 20 53 55 42 4d 	movabs $0x5254494d42555320,%rdx
    2d26:	49 54 52 
    2d29:	48 89 45 20          	mov    %rax,0x20(%rbp)
    2d2d:	48 89 55 28          	mov    %rdx,0x28(%rbp)
    2d31:	48 b8 5f 4d 41 58 42 	movabs $0x46554258414d5f,%rax
    2d38:	55 46 00 
    2d3b:	48 89 45 30          	mov    %rax,0x30(%rbp)
    2d3f:	89 df                	mov    %ebx,%edi
    2d41:	e8 ba e5 ff ff       	callq  1300 <close@plt>
    2d46:	b8 ff ff ff ff       	mov    $0xffffffff,%eax
    2d4b:	e9 56 fe ff ff       	jmpq   2ba6 <submitr+0x2f8>
    2d50:	48 b8 45 72 72 6f 72 	movabs $0x52203a726f727245,%rax
    2d57:	3a 20 52 
    2d5a:	48 ba 65 73 75 6c 74 	movabs $0x747320746c757365,%rdx
    2d61:	20 73 74 
    2d64:	48 89 45 00          	mov    %rax,0x0(%rbp)
    2d68:	48 89 55 08          	mov    %rdx,0x8(%rbp)
    2d6c:	48 b8 72 69 6e 67 20 	movabs $0x6e6f6320676e6972,%rax
    2d73:	63 6f 6e 
    2d76:	48 ba 74 61 69 6e 73 	movabs $0x6e6120736e696174,%rdx
    2d7d:	20 61 6e 
    2d80:	48 89 45 10          	mov    %rax,0x10(%rbp)
    2d84:	48 89 55 18          	mov    %rdx,0x18(%rbp)
    2d88:	48 b8 20 69 6c 6c 65 	movabs $0x6c6167656c6c6920,%rax
    2d8f:	67 61 6c 
    2d92:	48 ba 20 6f 72 20 75 	movabs $0x72706e7520726f20,%rdx
    2d99:	6e 70 72 
    2d9c:	48 89 45 20          	mov    %rax,0x20(%rbp)
    2da0:	48 89 55 28          	mov    %rdx,0x28(%rbp)
    2da4:	48 b8 69 6e 74 61 62 	movabs $0x20656c6261746e69,%rax
    2dab:	6c 65 20 
    2dae:	48 ba 63 68 61 72 61 	movabs $0x6574636172616863,%rdx
    2db5:	63 74 65 
    2db8:	48 89 45 30          	mov    %rax,0x30(%rbp)
    2dbc:	48 89 55 38          	mov    %rdx,0x38(%rbp)
    2dc0:	66 c7 45 40 72 2e    	movw   $0x2e72,0x40(%rbp)
    2dc6:	c6 45 42 00          	movb   $0x0,0x42(%rbp)
    2dca:	89 df                	mov    %ebx,%edi
    2dcc:	e8 2f e5 ff ff       	callq  1300 <close@plt>
    2dd1:	b8 ff ff ff ff       	mov    $0xffffffff,%eax
    2dd6:	e9 cb fd ff ff       	jmpq   2ba6 <submitr+0x2f8>
    2ddb:	48 b8 45 72 72 6f 72 	movabs $0x43203a726f727245,%rax
    2de2:	3a 20 43 
    2de5:	48 ba 6c 69 65 6e 74 	movabs $0x6e7520746e65696c,%rdx
    2dec:	20 75 6e 
    2def:	48 89 45 00          	mov    %rax,0x0(%rbp)
    2df3:	48 89 55 08          	mov    %rdx,0x8(%rbp)
    2df7:	48 b8 61 62 6c 65 20 	movabs $0x206f7420656c6261,%rax
    2dfe:	74 6f 20 
    2e01:	48 ba 77 72 69 74 65 	movabs $0x6f74206574697277,%rdx
    2e08:	20 74 6f 
    2e0b:	48 89 45 10          	mov    %rax,0x10(%rbp)
    2e0f:	48 89 55 18          	mov    %rdx,0x18(%rbp)
    2e13:	48 b8 20 74 68 65 20 	movabs $0x7365722065687420,%rax
    2e1a:	72 65 73 
    2e1d:	48 ba 75 6c 74 20 73 	movabs $0x7672657320746c75,%rdx
    2e24:	65 72 76 
    2e27:	48 89 45 20          	mov    %rax,0x20(%rbp)
    2e2b:	48 89 55 28          	mov    %rdx,0x28(%rbp)
    2e2f:	66 c7 45 30 65 72    	movw   $0x7265,0x30(%rbp)
    2e35:	c6 45 32 00          	movb   $0x0,0x32(%rbp)
    2e39:	89 df                	mov    %ebx,%edi
    2e3b:	e8 c0 e4 ff ff       	callq  1300 <close@plt>
    2e40:	b8 ff ff ff ff       	mov    $0xffffffff,%eax
    2e45:	e9 5c fd ff ff       	jmpq   2ba6 <submitr+0x2f8>
    2e4a:	48 b8 45 72 72 6f 72 	movabs $0x43203a726f727245,%rax
    2e51:	3a 20 43 
    2e54:	48 ba 6c 69 65 6e 74 	movabs $0x6e7520746e65696c,%rdx
    2e5b:	20 75 6e 
    2e5e:	48 89 45 00          	mov    %rax,0x0(%rbp)
    2e62:	48 89 55 08          	mov    %rdx,0x8(%rbp)
    2e66:	48 b8 61 62 6c 65 20 	movabs $0x206f7420656c6261,%rax
    2e6d:	74 6f 20 
    2e70:	48 ba 72 65 61 64 20 	movabs $0x7269662064616572,%rdx
    2e77:	66 69 72 
    2e7a:	48 89 45 10          	mov    %rax,0x10(%rbp)
    2e7e:	48 89 55 18          	mov    %rdx,0x18(%rbp)
    2e82:	48 b8 73 74 20 68 65 	movabs $0x6564616568207473,%rax
    2e89:	61 64 65 
    2e8c:	48 ba 72 20 66 72 6f 	movabs $0x72206d6f72662072,%rdx
    2e93:	6d 20 72 
    2e96:	48 89 45 20          	mov    %rax,0x20(%rbp)
    2e9a:	48 89 55 28          	mov    %rdx,0x28(%rbp)
    2e9e:	48 b8 65 73 75 6c 74 	movabs $0x657320746c757365,%rax
    2ea5:	20 73 65 
    2ea8:	48 89 45 30          	mov    %rax,0x30(%rbp)
    2eac:	c7 45 38 72 76 65 72 	movl   $0x72657672,0x38(%rbp)
    2eb3:	c6 45 3c 00          	movb   $0x0,0x3c(%rbp)
    2eb7:	89 df                	mov    %ebx,%edi
    2eb9:	e8 42 e4 ff ff       	callq  1300 <close@plt>
    2ebe:	b8 ff ff ff ff       	mov    $0xffffffff,%eax
    2ec3:	e9 de fc ff ff       	jmpq   2ba6 <submitr+0x2f8>
    2ec8:	48 8d b4 24 50 20 00 	lea    0x2050(%rsp),%rsi
    2ecf:	00 
    2ed0:	48 8d 7c 24 40       	lea    0x40(%rsp),%rdi
    2ed5:	ba 00 20 00 00       	mov    $0x2000,%edx
    2eda:	e8 1e f8 ff ff       	callq  26fd <rio_readlineb>
    2edf:	48 85 c0             	test   %rax,%rax
    2ee2:	0f 8e 96 00 00 00    	jle    2f7e <submitr+0x6d0>
    2ee8:	44 8b 44 24 2c       	mov    0x2c(%rsp),%r8d
    2eed:	41 81 f8 c8 00 00 00 	cmp    $0xc8,%r8d
    2ef4:	0f 85 08 01 00 00    	jne    3002 <submitr+0x754>
    2efa:	48 8d b4 24 50 20 00 	lea    0x2050(%rsp),%rsi
    2f01:	00 
    2f02:	48 89 ef             	mov    %rbp,%rdi
    2f05:	e8 86 e3 ff ff       	callq  1290 <strcpy@plt>
    2f0a:	89 df                	mov    %ebx,%edi
    2f0c:	e8 ef e3 ff ff       	callq  1300 <close@plt>
    2f11:	b9 04 00 00 00       	mov    $0x4,%ecx
    2f16:	48 8d 3d 70 17 00 00 	lea    0x1770(%rip),%rdi        # 468d <trans_char+0xbd>
    2f1d:	48 89 ee             	mov    %rbp,%rsi
    2f20:	f3 a6                	repz cmpsb %es:(%rdi),%ds:(%rsi)
    2f22:	0f 97 c0             	seta   %al
    2f25:	1c 00                	sbb    $0x0,%al
    2f27:	0f be c0             	movsbl %al,%eax
    2f2a:	85 c0                	test   %eax,%eax
    2f2c:	0f 84 74 fc ff ff    	je     2ba6 <submitr+0x2f8>
    2f32:	b9 05 00 00 00       	mov    $0x5,%ecx
    2f37:	48 8d 3d 53 17 00 00 	lea    0x1753(%rip),%rdi        # 4691 <trans_char+0xc1>
    2f3e:	48 89 ee             	mov    %rbp,%rsi
    2f41:	f3 a6                	repz cmpsb %es:(%rdi),%ds:(%rsi)
    2f43:	0f 97 c0             	seta   %al
    2f46:	1c 00                	sbb    $0x0,%al
    2f48:	0f be c0             	movsbl %al,%eax
    2f4b:	85 c0                	test   %eax,%eax
    2f4d:	0f 84 53 fc ff ff    	je     2ba6 <submitr+0x2f8>
    2f53:	b9 03 00 00 00       	mov    $0x3,%ecx
    2f58:	48 8d 3d 37 17 00 00 	lea    0x1737(%rip),%rdi        # 4696 <trans_char+0xc6>
    2f5f:	48 89 ee             	mov    %rbp,%rsi
    2f62:	f3 a6                	repz cmpsb %es:(%rdi),%ds:(%rsi)
    2f64:	0f 97 c0             	seta   %al
    2f67:	1c 00                	sbb    $0x0,%al
    2f69:	0f be c0             	movsbl %al,%eax
    2f6c:	85 c0                	test   %eax,%eax
    2f6e:	0f 84 32 fc ff ff    	je     2ba6 <submitr+0x2f8>
    2f74:	b8 ff ff ff ff       	mov    $0xffffffff,%eax
    2f79:	e9 28 fc ff ff       	jmpq   2ba6 <submitr+0x2f8>
    2f7e:	48 b8 45 72 72 6f 72 	movabs $0x43203a726f727245,%rax
    2f85:	3a 20 43 
    2f88:	48 ba 6c 69 65 6e 74 	movabs $0x6e7520746e65696c,%rdx
    2f8f:	20 75 6e 
    2f92:	48 89 45 00          	mov    %rax,0x0(%rbp)
    2f96:	48 89 55 08          	mov    %rdx,0x8(%rbp)
    2f9a:	48 b8 61 62 6c 65 20 	movabs $0x206f7420656c6261,%rax
    2fa1:	74 6f 20 
    2fa4:	48 ba 72 65 61 64 20 	movabs $0x6174732064616572,%rdx
    2fab:	73 74 61 
    2fae:	48 89 45 10          	mov    %rax,0x10(%rbp)
    2fb2:	48 89 55 18          	mov    %rdx,0x18(%rbp)
    2fb6:	48 b8 74 75 73 20 6d 	movabs $0x7373656d20737574,%rax
    2fbd:	65 73 73 
    2fc0:	48 ba 61 67 65 20 66 	movabs $0x6d6f726620656761,%rdx
    2fc7:	72 6f 6d 
    2fca:	48 89 45 20          	mov    %rax,0x20(%rbp)
    2fce:	48 89 55 28          	mov    %rdx,0x28(%rbp)
    2fd2:	48 b8 20 72 65 73 75 	movabs $0x20746c7573657220,%rax
    2fd9:	6c 74 20 
    2fdc:	48 89 45 30          	mov    %rax,0x30(%rbp)
    2fe0:	c7 45 38 73 65 72 76 	movl   $0x76726573,0x38(%rbp)
    2fe7:	66 c7 45 3c 65 72    	movw   $0x7265,0x3c(%rbp)
    2fed:	c6 45 3e 00          	movb   $0x0,0x3e(%rbp)
    2ff1:	89 df                	mov    %ebx,%edi
    2ff3:	e8 08 e3 ff ff       	callq  1300 <close@plt>
    2ff8:	b8 ff ff ff ff       	mov    $0xffffffff,%eax
    2ffd:	e9 a4 fb ff ff       	jmpq   2ba6 <submitr+0x2f8>
    3002:	4c 8d 8c 24 50 80 00 	lea    0x8050(%rsp),%r9
    3009:	00 
    300a:	48 8d 0d 37 16 00 00 	lea    0x1637(%rip),%rcx        # 4648 <trans_char+0x78>
    3011:	48 c7 c2 ff ff ff ff 	mov    $0xffffffffffffffff,%rdx
    3018:	be 01 00 00 00       	mov    $0x1,%esi
    301d:	48 89 ef             	mov    %rbp,%rdi
    3020:	b8 00 00 00 00       	mov    $0x0,%eax
    3025:	e8 16 e4 ff ff       	callq  1440 <__sprintf_chk@plt>
    302a:	89 df                	mov    %ebx,%edi
    302c:	e8 cf e2 ff ff       	callq  1300 <close@plt>
    3031:	b8 ff ff ff ff       	mov    $0xffffffff,%eax
    3036:	e9 6b fb ff ff       	jmpq   2ba6 <submitr+0x2f8>
    303b:	e8 80 e2 ff ff       	callq  12c0 <__stack_chk_fail@plt>

0000000000003040 <init_timeout>:
    3040:	f3 0f 1e fa          	endbr64 
    3044:	85 ff                	test   %edi,%edi
    3046:	74 26                	je     306e <init_timeout+0x2e>
    3048:	53                   	push   %rbx
    3049:	89 fb                	mov    %edi,%ebx
    304b:	78 1a                	js     3067 <init_timeout+0x27>
    304d:	48 8d 35 8e f5 ff ff 	lea    -0xa72(%rip),%rsi        # 25e2 <sigalrm_handler>
    3054:	bf 0e 00 00 00       	mov    $0xe,%edi
    3059:	e8 c2 e2 ff ff       	callq  1320 <signal@plt>
    305e:	89 df                	mov    %ebx,%edi
    3060:	e8 8b e2 ff ff       	callq  12f0 <alarm@plt>
    3065:	5b                   	pop    %rbx
    3066:	c3                   	retq   
    3067:	bb 00 00 00 00       	mov    $0x0,%ebx
    306c:	eb df                	jmp    304d <init_timeout+0xd>
    306e:	c3                   	retq   

000000000000306f <init_driver>:
    306f:	f3 0f 1e fa          	endbr64 
    3073:	41 54                	push   %r12
    3075:	55                   	push   %rbp
    3076:	53                   	push   %rbx
    3077:	48 83 ec 20          	sub    $0x20,%rsp
    307b:	48 89 fd             	mov    %rdi,%rbp
    307e:	64 48 8b 04 25 28 00 	mov    %fs:0x28,%rax
    3085:	00 00 
    3087:	48 89 44 24 18       	mov    %rax,0x18(%rsp)
    308c:	31 c0                	xor    %eax,%eax
    308e:	be 01 00 00 00       	mov    $0x1,%esi
    3093:	bf 0d 00 00 00       	mov    $0xd,%edi
    3098:	e8 83 e2 ff ff       	callq  1320 <signal@plt>
    309d:	be 01 00 00 00       	mov    $0x1,%esi
    30a2:	bf 1d 00 00 00       	mov    $0x1d,%edi
    30a7:	e8 74 e2 ff ff       	callq  1320 <signal@plt>
    30ac:	be 01 00 00 00       	mov    $0x1,%esi
    30b1:	bf 1d 00 00 00       	mov    $0x1d,%edi
    30b6:	e8 65 e2 ff ff       	callq  1320 <signal@plt>
    30bb:	ba 00 00 00 00       	mov    $0x0,%edx
    30c0:	be 01 00 00 00       	mov    $0x1,%esi
    30c5:	bf 02 00 00 00       	mov    $0x2,%edi
    30ca:	e8 81 e3 ff ff       	callq  1450 <socket@plt>
    30cf:	85 c0                	test   %eax,%eax
    30d1:	0f 88 9c 00 00 00    	js     3173 <init_driver+0x104>
    30d7:	89 c3                	mov    %eax,%ebx
    30d9:	48 8d 3d b9 15 00 00 	lea    0x15b9(%rip),%rdi        # 4699 <trans_char+0xc9>
    30e0:	e8 4b e2 ff ff       	callq  1330 <gethostbyname@plt>
    30e5:	48 85 c0             	test   %rax,%rax
    30e8:	0f 84 d1 00 00 00    	je     31bf <init_driver+0x150>
    30ee:	49 89 e4             	mov    %rsp,%r12
    30f1:	48 c7 04 24 00 00 00 	movq   $0x0,(%rsp)
    30f8:	00 
    30f9:	48 c7 44 24 08 00 00 	movq   $0x0,0x8(%rsp)
    3100:	00 00 
    3102:	66 c7 04 24 02 00    	movw   $0x2,(%rsp)
    3108:	48 63 50 14          	movslq 0x14(%rax),%rdx
    310c:	48 8b 40 18          	mov    0x18(%rax),%rax
    3110:	48 8b 30             	mov    (%rax),%rsi
    3113:	48 8d 7c 24 04       	lea    0x4(%rsp),%rdi
    3118:	b9 0c 00 00 00       	mov    $0xc,%ecx
    311d:	e8 1e e2 ff ff       	callq  1340 <__memmove_chk@plt>
    3122:	66 c7 44 24 02 3c 9a 	movw   $0x9a3c,0x2(%rsp)
    3129:	ba 10 00 00 00       	mov    $0x10,%edx
    312e:	4c 89 e6             	mov    %r12,%rsi
    3131:	89 df                	mov    %ebx,%edi
    3133:	e8 d8 e2 ff ff       	callq  1410 <connect@plt>
    3138:	85 c0                	test   %eax,%eax
    313a:	0f 88 e7 00 00 00    	js     3227 <init_driver+0x1b8>
    3140:	89 df                	mov    %ebx,%edi
    3142:	e8 b9 e1 ff ff       	callq  1300 <close@plt>
    3147:	66 c7 45 00 4f 4b    	movw   $0x4b4f,0x0(%rbp)
    314d:	c6 45 02 00          	movb   $0x0,0x2(%rbp)
    3151:	b8 00 00 00 00       	mov    $0x0,%eax
    3156:	48 8b 4c 24 18       	mov    0x18(%rsp),%rcx
    315b:	64 48 33 0c 25 28 00 	xor    %fs:0x28,%rcx
    3162:	00 00 
    3164:	0f 85 10 01 00 00    	jne    327a <init_driver+0x20b>
    316a:	48 83 c4 20          	add    $0x20,%rsp
    316e:	5b                   	pop    %rbx
    316f:	5d                   	pop    %rbp
    3170:	41 5c                	pop    %r12
    3172:	c3                   	retq   
    3173:	48 b8 45 72 72 6f 72 	movabs $0x43203a726f727245,%rax
    317a:	3a 20 43 
    317d:	48 ba 6c 69 65 6e 74 	movabs $0x6e7520746e65696c,%rdx
    3184:	20 75 6e 
    3187:	48 89 45 00          	mov    %rax,0x0(%rbp)
    318b:	48 89 55 08          	mov    %rdx,0x8(%rbp)
    318f:	48 b8 61 62 6c 65 20 	movabs $0x206f7420656c6261,%rax
    3196:	74 6f 20 
    3199:	48 ba 63 72 65 61 74 	movabs $0x7320657461657263,%rdx
    31a0:	65 20 73 
    31a3:	48 89 45 10          	mov    %rax,0x10(%rbp)
    31a7:	48 89 55 18          	mov    %rdx,0x18(%rbp)
    31ab:	c7 45 20 6f 63 6b 65 	movl   $0x656b636f,0x20(%rbp)
    31b2:	66 c7 45 24 74 00    	movw   $0x74,0x24(%rbp)
    31b8:	b8 ff ff ff ff       	mov    $0xffffffff,%eax
    31bd:	eb 97                	jmp    3156 <init_driver+0xe7>
    31bf:	48 b8 45 72 72 6f 72 	movabs $0x44203a726f727245,%rax
    31c6:	3a 20 44 
    31c9:	48 ba 4e 53 20 69 73 	movabs $0x6e7520736920534e,%rdx
    31d0:	20 75 6e 
    31d3:	48 89 45 00          	mov    %rax,0x0(%rbp)
    31d7:	48 89 55 08          	mov    %rdx,0x8(%rbp)
    31db:	48 b8 61 62 6c 65 20 	movabs $0x206f7420656c6261,%rax
    31e2:	74 6f 20 
    31e5:	48 ba 72 65 73 6f 6c 	movabs $0x2065766c6f736572,%rdx
    31ec:	76 65 20 
    31ef:	48 89 45 10          	mov    %rax,0x10(%rbp)
    31f3:	48 89 55 18          	mov    %rdx,0x18(%rbp)
    31f7:	48 b8 73 65 72 76 65 	movabs $0x6120726576726573,%rax
    31fe:	72 20 61 
    3201:	48 89 45 20          	mov    %rax,0x20(%rbp)
    3205:	c7 45 28 64 64 72 65 	movl   $0x65726464,0x28(%rbp)
    320c:	66 c7 45 2c 73 73    	movw   $0x7373,0x2c(%rbp)
    3212:	c6 45 2e 00          	movb   $0x0,0x2e(%rbp)
    3216:	89 df                	mov    %ebx,%edi
    3218:	e8 e3 e0 ff ff       	callq  1300 <close@plt>
    321d:	b8 ff ff ff ff       	mov    $0xffffffff,%eax
    3222:	e9 2f ff ff ff       	jmpq   3156 <init_driver+0xe7>
    3227:	48 b8 45 72 72 6f 72 	movabs $0x55203a726f727245,%rax
    322e:	3a 20 55 
    3231:	48 ba 6e 61 62 6c 65 	movabs $0x6f7420656c62616e,%rdx
    3238:	20 74 6f 
    323b:	48 89 45 00          	mov    %rax,0x0(%rbp)
    323f:	48 89 55 08          	mov    %rdx,0x8(%rbp)
    3243:	48 b8 20 63 6f 6e 6e 	movabs $0x7463656e6e6f6320,%rax
    324a:	65 63 74 
    324d:	48 ba 20 74 6f 20 73 	movabs $0x76726573206f7420,%rdx
    3254:	65 72 76 
    3257:	48 89 45 10          	mov    %rax,0x10(%rbp)
    325b:	48 89 55 18          	mov    %rdx,0x18(%rbp)
    325f:	66 c7 45 20 65 72    	movw   $0x7265,0x20(%rbp)
    3265:	c6 45 22 00          	movb   $0x0,0x22(%rbp)
    3269:	89 df                	mov    %ebx,%edi
    326b:	e8 90 e0 ff ff       	callq  1300 <close@plt>
    3270:	b8 ff ff ff ff       	mov    $0xffffffff,%eax
    3275:	e9 dc fe ff ff       	jmpq   3156 <init_driver+0xe7>
    327a:	e8 41 e0 ff ff       	callq  12c0 <__stack_chk_fail@plt>

000000000000327f <driver_post>:
    327f:	f3 0f 1e fa          	endbr64 
    3283:	53                   	push   %rbx
    3284:	4c 89 cb             	mov    %r9,%rbx
    3287:	45 85 c0             	test   %r8d,%r8d
    328a:	75 18                	jne    32a4 <driver_post+0x25>
    328c:	48 85 ff             	test   %rdi,%rdi
    328f:	74 05                	je     3296 <driver_post+0x17>
    3291:	80 3f 00             	cmpb   $0x0,(%rdi)
    3294:	75 37                	jne    32cd <driver_post+0x4e>
    3296:	66 c7 03 4f 4b       	movw   $0x4b4f,(%rbx)
    329b:	c6 43 02 00          	movb   $0x0,0x2(%rbx)
    329f:	44 89 c0             	mov    %r8d,%eax
    32a2:	5b                   	pop    %rbx
    32a3:	c3                   	retq   
    32a4:	48 89 ca             	mov    %rcx,%rdx
    32a7:	48 8d 35 03 14 00 00 	lea    0x1403(%rip),%rsi        # 46b1 <trans_char+0xe1>
    32ae:	bf 01 00 00 00       	mov    $0x1,%edi
    32b3:	b8 00 00 00 00       	mov    $0x0,%eax
    32b8:	e8 f3 e0 ff ff       	callq  13b0 <__printf_chk@plt>
    32bd:	66 c7 03 4f 4b       	movw   $0x4b4f,(%rbx)
    32c2:	c6 43 02 00          	movb   $0x0,0x2(%rbx)
    32c6:	b8 00 00 00 00       	mov    $0x0,%eax
    32cb:	eb d5                	jmp    32a2 <driver_post+0x23>
    32cd:	48 83 ec 08          	sub    $0x8,%rsp
    32d1:	41 51                	push   %r9
    32d3:	49 89 c9             	mov    %rcx,%r9
    32d6:	49 89 d0             	mov    %rdx,%r8
    32d9:	48 89 f9             	mov    %rdi,%rcx
    32dc:	48 89 f2             	mov    %rsi,%rdx
    32df:	be 9a 3c 00 00       	mov    $0x3c9a,%esi
    32e4:	48 8d 3d ae 13 00 00 	lea    0x13ae(%rip),%rdi        # 4699 <trans_char+0xc9>
    32eb:	e8 be f5 ff ff       	callq  28ae <submitr>
    32f0:	48 83 c4 10          	add    $0x10,%rsp
    32f4:	eb ac                	jmp    32a2 <driver_post+0x23>

00000000000032f6 <check>:
    32f6:	f3 0f 1e fa          	endbr64 
    32fa:	89 f8                	mov    %edi,%eax
    32fc:	c1 e8 1c             	shr    $0x1c,%eax
    32ff:	74 1d                	je     331e <check+0x28>
    3301:	b9 00 00 00 00       	mov    $0x0,%ecx
    3306:	83 f9 1f             	cmp    $0x1f,%ecx
    3309:	7f 0d                	jg     3318 <check+0x22>
    330b:	89 f8                	mov    %edi,%eax
    330d:	d3 e8                	shr    %cl,%eax
    330f:	3c 0a                	cmp    $0xa,%al
    3311:	74 11                	je     3324 <check+0x2e>
    3313:	83 c1 08             	add    $0x8,%ecx
    3316:	eb ee                	jmp    3306 <check+0x10>
    3318:	b8 01 00 00 00       	mov    $0x1,%eax
    331d:	c3                   	retq   
    331e:	b8 00 00 00 00       	mov    $0x0,%eax
    3323:	c3                   	retq   
    3324:	b8 00 00 00 00       	mov    $0x0,%eax
    3329:	c3                   	retq   

000000000000332a <gencookie>:
    332a:	f3 0f 1e fa          	endbr64 
    332e:	53                   	push   %rbx
    332f:	83 c7 01             	add    $0x1,%edi
    3332:	e8 39 df ff ff       	callq  1270 <srandom@plt>
    3337:	e8 44 e0 ff ff       	callq  1380 <random@plt>
    333c:	48 89 c7             	mov    %rax,%rdi
    333f:	89 c3                	mov    %eax,%ebx
    3341:	e8 b0 ff ff ff       	callq  32f6 <check>
    3346:	85 c0                	test   %eax,%eax
    3348:	74 ed                	je     3337 <gencookie+0xd>
    334a:	89 d8                	mov    %ebx,%eax
    334c:	5b                   	pop    %rbx
    334d:	c3                   	retq   
    334e:	66 90                	xchg   %ax,%ax

0000000000003350 <__libc_csu_init>:
    3350:	f3 0f 1e fa          	endbr64 
    3354:	41 57                	push   %r15
    3356:	4c 8d 3d 5b 39 00 00 	lea    0x395b(%rip),%r15        # 6cb8 <__frame_dummy_init_array_entry>
    335d:	41 56                	push   %r14
    335f:	49 89 d6             	mov    %rdx,%r14
    3362:	41 55                	push   %r13
    3364:	49 89 f5             	mov    %rsi,%r13
    3367:	41 54                	push   %r12
    3369:	41 89 fc             	mov    %edi,%r12d
    336c:	55                   	push   %rbp
    336d:	48 8d 2d 4c 39 00 00 	lea    0x394c(%rip),%rbp        # 6cc0 <__do_global_dtors_aux_fini_array_entry>
    3374:	53                   	push   %rbx
    3375:	4c 29 fd             	sub    %r15,%rbp
    3378:	48 83 ec 08          	sub    $0x8,%rsp
    337c:	e8 7f dc ff ff       	callq  1000 <_init>
    3381:	48 c1 fd 03          	sar    $0x3,%rbp
    3385:	74 1f                	je     33a6 <__libc_csu_init+0x56>
    3387:	31 db                	xor    %ebx,%ebx
    3389:	0f 1f 80 00 00 00 00 	nopl   0x0(%rax)
    3390:	4c 89 f2             	mov    %r14,%rdx
    3393:	4c 89 ee             	mov    %r13,%rsi
    3396:	44 89 e7             	mov    %r12d,%edi
    3399:	41 ff 14 df          	callq  *(%r15,%rbx,8)
    339d:	48 83 c3 01          	add    $0x1,%rbx
    33a1:	48 39 dd             	cmp    %rbx,%rbp
    33a4:	75 ea                	jne    3390 <__libc_csu_init+0x40>
    33a6:	48 83 c4 08          	add    $0x8,%rsp
    33aa:	5b                   	pop    %rbx
    33ab:	5d                   	pop    %rbp
    33ac:	41 5c                	pop    %r12
    33ae:	41 5d                	pop    %r13
    33b0:	41 5e                	pop    %r14
    33b2:	41 5f                	pop    %r15
    33b4:	c3                   	retq   
    33b5:	66 66 2e 0f 1f 84 00 	data16 nopw %cs:0x0(%rax,%rax,1)
    33bc:	00 00 00 00 

00000000000033c0 <__libc_csu_fini>:
    33c0:	f3 0f 1e fa          	endbr64 
    33c4:	c3                   	retq   

Disassembly of section .fini:

00000000000033c8 <_fini>:
    33c8:	f3 0f 1e fa          	endbr64 
    33cc:	48 83 ec 08          	sub    $0x8,%rsp
    33d0:	48 83 c4 08          	add    $0x8,%rsp
    33d4:	c3                   	retq   
