
rtarget:     file format elf64-x86-64


Disassembly of section .init:

0000000000001000 <_init>:
    1000:	f3 0f 1e fa          	endbr64 
    1004:	48 83 ec 08          	sub    $0x8,%rsp
    1008:	48 8b 05 d9 5f 00 00 	mov    0x5fd9(%rip),%rax        # 6fe8 <__gmon_start__>
    100f:	48 85 c0             	test   %rax,%rax
    1012:	74 02                	je     1016 <_init+0x16>
    1014:	ff d0                	callq  *%rax
    1016:	48 83 c4 08          	add    $0x8,%rsp
    101a:	c3                   	retq   

Disassembly of section .plt:

0000000000001020 <.plt>:
    1020:	ff 35 9a 5e 00 00    	pushq  0x5e9a(%rip)        # 6ec0 <_GLOBAL_OFFSET_TABLE_+0x8>
    1026:	f2 ff 25 9b 5e 00 00 	bnd jmpq *0x5e9b(%rip)        # 6ec8 <_GLOBAL_OFFSET_TABLE_+0x10>
    102d:	0f 1f 00             	nopl   (%rax)
    1030:	f3 0f 1e fa          	endbr64 
    1034:	68 00 00 00 00       	pushq  $0x0
    1039:	f2 e9 e1 ff ff ff    	bnd jmpq 1020 <.plt>
    103f:	90                   	nop
    1040:	f3 0f 1e fa          	endbr64 
    1044:	68 01 00 00 00       	pushq  $0x1
    1049:	f2 e9 d1 ff ff ff    	bnd jmpq 1020 <.plt>
    104f:	90                   	nop
    1050:	f3 0f 1e fa          	endbr64 
    1054:	68 02 00 00 00       	pushq  $0x2
    1059:	f2 e9 c1 ff ff ff    	bnd jmpq 1020 <.plt>
    105f:	90                   	nop
    1060:	f3 0f 1e fa          	endbr64 
    1064:	68 03 00 00 00       	pushq  $0x3
    1069:	f2 e9 b1 ff ff ff    	bnd jmpq 1020 <.plt>
    106f:	90                   	nop
    1070:	f3 0f 1e fa          	endbr64 
    1074:	68 04 00 00 00       	pushq  $0x4
    1079:	f2 e9 a1 ff ff ff    	bnd jmpq 1020 <.plt>
    107f:	90                   	nop
    1080:	f3 0f 1e fa          	endbr64 
    1084:	68 05 00 00 00       	pushq  $0x5
    1089:	f2 e9 91 ff ff ff    	bnd jmpq 1020 <.plt>
    108f:	90                   	nop
    1090:	f3 0f 1e fa          	endbr64 
    1094:	68 06 00 00 00       	pushq  $0x6
    1099:	f2 e9 81 ff ff ff    	bnd jmpq 1020 <.plt>
    109f:	90                   	nop
    10a0:	f3 0f 1e fa          	endbr64 
    10a4:	68 07 00 00 00       	pushq  $0x7
    10a9:	f2 e9 71 ff ff ff    	bnd jmpq 1020 <.plt>
    10af:	90                   	nop
    10b0:	f3 0f 1e fa          	endbr64 
    10b4:	68 08 00 00 00       	pushq  $0x8
    10b9:	f2 e9 61 ff ff ff    	bnd jmpq 1020 <.plt>
    10bf:	90                   	nop
    10c0:	f3 0f 1e fa          	endbr64 
    10c4:	68 09 00 00 00       	pushq  $0x9
    10c9:	f2 e9 51 ff ff ff    	bnd jmpq 1020 <.plt>
    10cf:	90                   	nop
    10d0:	f3 0f 1e fa          	endbr64 
    10d4:	68 0a 00 00 00       	pushq  $0xa
    10d9:	f2 e9 41 ff ff ff    	bnd jmpq 1020 <.plt>
    10df:	90                   	nop
    10e0:	f3 0f 1e fa          	endbr64 
    10e4:	68 0b 00 00 00       	pushq  $0xb
    10e9:	f2 e9 31 ff ff ff    	bnd jmpq 1020 <.plt>
    10ef:	90                   	nop
    10f0:	f3 0f 1e fa          	endbr64 
    10f4:	68 0c 00 00 00       	pushq  $0xc
    10f9:	f2 e9 21 ff ff ff    	bnd jmpq 1020 <.plt>
    10ff:	90                   	nop
    1100:	f3 0f 1e fa          	endbr64 
    1104:	68 0d 00 00 00       	pushq  $0xd
    1109:	f2 e9 11 ff ff ff    	bnd jmpq 1020 <.plt>
    110f:	90                   	nop
    1110:	f3 0f 1e fa          	endbr64 
    1114:	68 0e 00 00 00       	pushq  $0xe
    1119:	f2 e9 01 ff ff ff    	bnd jmpq 1020 <.plt>
    111f:	90                   	nop
    1120:	f3 0f 1e fa          	endbr64 
    1124:	68 0f 00 00 00       	pushq  $0xf
    1129:	f2 e9 f1 fe ff ff    	bnd jmpq 1020 <.plt>
    112f:	90                   	nop
    1130:	f3 0f 1e fa          	endbr64 
    1134:	68 10 00 00 00       	pushq  $0x10
    1139:	f2 e9 e1 fe ff ff    	bnd jmpq 1020 <.plt>
    113f:	90                   	nop
    1140:	f3 0f 1e fa          	endbr64 
    1144:	68 11 00 00 00       	pushq  $0x11
    1149:	f2 e9 d1 fe ff ff    	bnd jmpq 1020 <.plt>
    114f:	90                   	nop
    1150:	f3 0f 1e fa          	endbr64 
    1154:	68 12 00 00 00       	pushq  $0x12
    1159:	f2 e9 c1 fe ff ff    	bnd jmpq 1020 <.plt>
    115f:	90                   	nop
    1160:	f3 0f 1e fa          	endbr64 
    1164:	68 13 00 00 00       	pushq  $0x13
    1169:	f2 e9 b1 fe ff ff    	bnd jmpq 1020 <.plt>
    116f:	90                   	nop
    1170:	f3 0f 1e fa          	endbr64 
    1174:	68 14 00 00 00       	pushq  $0x14
    1179:	f2 e9 a1 fe ff ff    	bnd jmpq 1020 <.plt>
    117f:	90                   	nop
    1180:	f3 0f 1e fa          	endbr64 
    1184:	68 15 00 00 00       	pushq  $0x15
    1189:	f2 e9 91 fe ff ff    	bnd jmpq 1020 <.plt>
    118f:	90                   	nop
    1190:	f3 0f 1e fa          	endbr64 
    1194:	68 16 00 00 00       	pushq  $0x16
    1199:	f2 e9 81 fe ff ff    	bnd jmpq 1020 <.plt>
    119f:	90                   	nop
    11a0:	f3 0f 1e fa          	endbr64 
    11a4:	68 17 00 00 00       	pushq  $0x17
    11a9:	f2 e9 71 fe ff ff    	bnd jmpq 1020 <.plt>
    11af:	90                   	nop
    11b0:	f3 0f 1e fa          	endbr64 
    11b4:	68 18 00 00 00       	pushq  $0x18
    11b9:	f2 e9 61 fe ff ff    	bnd jmpq 1020 <.plt>
    11bf:	90                   	nop
    11c0:	f3 0f 1e fa          	endbr64 
    11c4:	68 19 00 00 00       	pushq  $0x19
    11c9:	f2 e9 51 fe ff ff    	bnd jmpq 1020 <.plt>
    11cf:	90                   	nop
    11d0:	f3 0f 1e fa          	endbr64 
    11d4:	68 1a 00 00 00       	pushq  $0x1a
    11d9:	f2 e9 41 fe ff ff    	bnd jmpq 1020 <.plt>
    11df:	90                   	nop
    11e0:	f3 0f 1e fa          	endbr64 
    11e4:	68 1b 00 00 00       	pushq  $0x1b
    11e9:	f2 e9 31 fe ff ff    	bnd jmpq 1020 <.plt>
    11ef:	90                   	nop
    11f0:	f3 0f 1e fa          	endbr64 
    11f4:	68 1c 00 00 00       	pushq  $0x1c
    11f9:	f2 e9 21 fe ff ff    	bnd jmpq 1020 <.plt>
    11ff:	90                   	nop
    1200:	f3 0f 1e fa          	endbr64 
    1204:	68 1d 00 00 00       	pushq  $0x1d
    1209:	f2 e9 11 fe ff ff    	bnd jmpq 1020 <.plt>
    120f:	90                   	nop
    1210:	f3 0f 1e fa          	endbr64 
    1214:	68 1e 00 00 00       	pushq  $0x1e
    1219:	f2 e9 01 fe ff ff    	bnd jmpq 1020 <.plt>
    121f:	90                   	nop
    1220:	f3 0f 1e fa          	endbr64 
    1224:	68 1f 00 00 00       	pushq  $0x1f
    1229:	f2 e9 f1 fd ff ff    	bnd jmpq 1020 <.plt>
    122f:	90                   	nop
    1230:	f3 0f 1e fa          	endbr64 
    1234:	68 20 00 00 00       	pushq  $0x20
    1239:	f2 e9 e1 fd ff ff    	bnd jmpq 1020 <.plt>
    123f:	90                   	nop

Disassembly of section .plt.got:

0000000000001240 <__cxa_finalize@plt>:
    1240:	f3 0f 1e fa          	endbr64 
    1244:	f2 ff 25 ad 5d 00 00 	bnd jmpq *0x5dad(%rip)        # 6ff8 <__cxa_finalize@GLIBC_2.2.5>
    124b:	0f 1f 44 00 00       	nopl   0x0(%rax,%rax,1)

Disassembly of section .plt.sec:

0000000000001250 <strcasecmp@plt>:
    1250:	f3 0f 1e fa          	endbr64 
    1254:	f2 ff 25 75 5c 00 00 	bnd jmpq *0x5c75(%rip)        # 6ed0 <strcasecmp@GLIBC_2.2.5>
    125b:	0f 1f 44 00 00       	nopl   0x0(%rax,%rax,1)

0000000000001260 <__errno_location@plt>:
    1260:	f3 0f 1e fa          	endbr64 
    1264:	f2 ff 25 6d 5c 00 00 	bnd jmpq *0x5c6d(%rip)        # 6ed8 <__errno_location@GLIBC_2.2.5>
    126b:	0f 1f 44 00 00       	nopl   0x0(%rax,%rax,1)

0000000000001270 <srandom@plt>:
    1270:	f3 0f 1e fa          	endbr64 
    1274:	f2 ff 25 65 5c 00 00 	bnd jmpq *0x5c65(%rip)        # 6ee0 <srandom@GLIBC_2.2.5>
    127b:	0f 1f 44 00 00       	nopl   0x0(%rax,%rax,1)

0000000000001280 <strncmp@plt>:
    1280:	f3 0f 1e fa          	endbr64 
    1284:	f2 ff 25 5d 5c 00 00 	bnd jmpq *0x5c5d(%rip)        # 6ee8 <strncmp@GLIBC_2.2.5>
    128b:	0f 1f 44 00 00       	nopl   0x0(%rax,%rax,1)

0000000000001290 <strcpy@plt>:
    1290:	f3 0f 1e fa          	endbr64 
    1294:	f2 ff 25 55 5c 00 00 	bnd jmpq *0x5c55(%rip)        # 6ef0 <strcpy@GLIBC_2.2.5>
    129b:	0f 1f 44 00 00       	nopl   0x0(%rax,%rax,1)

00000000000012a0 <puts@plt>:
    12a0:	f3 0f 1e fa          	endbr64 
    12a4:	f2 ff 25 4d 5c 00 00 	bnd jmpq *0x5c4d(%rip)        # 6ef8 <puts@GLIBC_2.2.5>
    12ab:	0f 1f 44 00 00       	nopl   0x0(%rax,%rax,1)

00000000000012b0 <write@plt>:
    12b0:	f3 0f 1e fa          	endbr64 
    12b4:	f2 ff 25 45 5c 00 00 	bnd jmpq *0x5c45(%rip)        # 6f00 <write@GLIBC_2.2.5>
    12bb:	0f 1f 44 00 00       	nopl   0x0(%rax,%rax,1)

00000000000012c0 <__stack_chk_fail@plt>:
    12c0:	f3 0f 1e fa          	endbr64 
    12c4:	f2 ff 25 3d 5c 00 00 	bnd jmpq *0x5c3d(%rip)        # 6f08 <__stack_chk_fail@GLIBC_2.4>
    12cb:	0f 1f 44 00 00       	nopl   0x0(%rax,%rax,1)

00000000000012d0 <mmap@plt>:
    12d0:	f3 0f 1e fa          	endbr64 
    12d4:	f2 ff 25 35 5c 00 00 	bnd jmpq *0x5c35(%rip)        # 6f10 <mmap@GLIBC_2.2.5>
    12db:	0f 1f 44 00 00       	nopl   0x0(%rax,%rax,1)

00000000000012e0 <memset@plt>:
    12e0:	f3 0f 1e fa          	endbr64 
    12e4:	f2 ff 25 2d 5c 00 00 	bnd jmpq *0x5c2d(%rip)        # 6f18 <memset@GLIBC_2.2.5>
    12eb:	0f 1f 44 00 00       	nopl   0x0(%rax,%rax,1)

00000000000012f0 <alarm@plt>:
    12f0:	f3 0f 1e fa          	endbr64 
    12f4:	f2 ff 25 25 5c 00 00 	bnd jmpq *0x5c25(%rip)        # 6f20 <alarm@GLIBC_2.2.5>
    12fb:	0f 1f 44 00 00       	nopl   0x0(%rax,%rax,1)

0000000000001300 <close@plt>:
    1300:	f3 0f 1e fa          	endbr64 
    1304:	f2 ff 25 1d 5c 00 00 	bnd jmpq *0x5c1d(%rip)        # 6f28 <close@GLIBC_2.2.5>
    130b:	0f 1f 44 00 00       	nopl   0x0(%rax,%rax,1)

0000000000001310 <read@plt>:
    1310:	f3 0f 1e fa          	endbr64 
    1314:	f2 ff 25 15 5c 00 00 	bnd jmpq *0x5c15(%rip)        # 6f30 <read@GLIBC_2.2.5>
    131b:	0f 1f 44 00 00       	nopl   0x0(%rax,%rax,1)

0000000000001320 <signal@plt>:
    1320:	f3 0f 1e fa          	endbr64 
    1324:	f2 ff 25 0d 5c 00 00 	bnd jmpq *0x5c0d(%rip)        # 6f38 <signal@GLIBC_2.2.5>
    132b:	0f 1f 44 00 00       	nopl   0x0(%rax,%rax,1)

0000000000001330 <gethostbyname@plt>:
    1330:	f3 0f 1e fa          	endbr64 
    1334:	f2 ff 25 05 5c 00 00 	bnd jmpq *0x5c05(%rip)        # 6f40 <gethostbyname@GLIBC_2.2.5>
    133b:	0f 1f 44 00 00       	nopl   0x0(%rax,%rax,1)

0000000000001340 <__memmove_chk@plt>:
    1340:	f3 0f 1e fa          	endbr64 
    1344:	f2 ff 25 fd 5b 00 00 	bnd jmpq *0x5bfd(%rip)        # 6f48 <__memmove_chk@GLIBC_2.3.4>
    134b:	0f 1f 44 00 00       	nopl   0x0(%rax,%rax,1)

0000000000001350 <strtol@plt>:
    1350:	f3 0f 1e fa          	endbr64 
    1354:	f2 ff 25 f5 5b 00 00 	bnd jmpq *0x5bf5(%rip)        # 6f50 <strtol@GLIBC_2.2.5>
    135b:	0f 1f 44 00 00       	nopl   0x0(%rax,%rax,1)

0000000000001360 <memcpy@plt>:
    1360:	f3 0f 1e fa          	endbr64 
    1364:	f2 ff 25 ed 5b 00 00 	bnd jmpq *0x5bed(%rip)        # 6f58 <memcpy@GLIBC_2.14>
    136b:	0f 1f 44 00 00       	nopl   0x0(%rax,%rax,1)

0000000000001370 <time@plt>:
    1370:	f3 0f 1e fa          	endbr64 
    1374:	f2 ff 25 e5 5b 00 00 	bnd jmpq *0x5be5(%rip)        # 6f60 <time@GLIBC_2.2.5>
    137b:	0f 1f 44 00 00       	nopl   0x0(%rax,%rax,1)

0000000000001380 <random@plt>:
    1380:	f3 0f 1e fa          	endbr64 
    1384:	f2 ff 25 dd 5b 00 00 	bnd jmpq *0x5bdd(%rip)        # 6f68 <random@GLIBC_2.2.5>
    138b:	0f 1f 44 00 00       	nopl   0x0(%rax,%rax,1)

0000000000001390 <__isoc99_sscanf@plt>:
    1390:	f3 0f 1e fa          	endbr64 
    1394:	f2 ff 25 d5 5b 00 00 	bnd jmpq *0x5bd5(%rip)        # 6f70 <__isoc99_sscanf@GLIBC_2.7>
    139b:	0f 1f 44 00 00       	nopl   0x0(%rax,%rax,1)

00000000000013a0 <munmap@plt>:
    13a0:	f3 0f 1e fa          	endbr64 
    13a4:	f2 ff 25 cd 5b 00 00 	bnd jmpq *0x5bcd(%rip)        # 6f78 <munmap@GLIBC_2.2.5>
    13ab:	0f 1f 44 00 00       	nopl   0x0(%rax,%rax,1)

00000000000013b0 <__printf_chk@plt>:
    13b0:	f3 0f 1e fa          	endbr64 
    13b4:	f2 ff 25 c5 5b 00 00 	bnd jmpq *0x5bc5(%rip)        # 6f80 <__printf_chk@GLIBC_2.3.4>
    13bb:	0f 1f 44 00 00       	nopl   0x0(%rax,%rax,1)

00000000000013c0 <fopen@plt>:
    13c0:	f3 0f 1e fa          	endbr64 
    13c4:	f2 ff 25 bd 5b 00 00 	bnd jmpq *0x5bbd(%rip)        # 6f88 <fopen@GLIBC_2.2.5>
    13cb:	0f 1f 44 00 00       	nopl   0x0(%rax,%rax,1)

00000000000013d0 <getopt@plt>:
    13d0:	f3 0f 1e fa          	endbr64 
    13d4:	f2 ff 25 b5 5b 00 00 	bnd jmpq *0x5bb5(%rip)        # 6f90 <getopt@GLIBC_2.2.5>
    13db:	0f 1f 44 00 00       	nopl   0x0(%rax,%rax,1)

00000000000013e0 <strtoul@plt>:
    13e0:	f3 0f 1e fa          	endbr64 
    13e4:	f2 ff 25 ad 5b 00 00 	bnd jmpq *0x5bad(%rip)        # 6f98 <strtoul@GLIBC_2.2.5>
    13eb:	0f 1f 44 00 00       	nopl   0x0(%rax,%rax,1)

00000000000013f0 <gethostname@plt>:
    13f0:	f3 0f 1e fa          	endbr64 
    13f4:	f2 ff 25 a5 5b 00 00 	bnd jmpq *0x5ba5(%rip)        # 6fa0 <gethostname@GLIBC_2.2.5>
    13fb:	0f 1f 44 00 00       	nopl   0x0(%rax,%rax,1)

0000000000001400 <exit@plt>:
    1400:	f3 0f 1e fa          	endbr64 
    1404:	f2 ff 25 9d 5b 00 00 	bnd jmpq *0x5b9d(%rip)        # 6fa8 <exit@GLIBC_2.2.5>
    140b:	0f 1f 44 00 00       	nopl   0x0(%rax,%rax,1)

0000000000001410 <connect@plt>:
    1410:	f3 0f 1e fa          	endbr64 
    1414:	f2 ff 25 95 5b 00 00 	bnd jmpq *0x5b95(%rip)        # 6fb0 <connect@GLIBC_2.2.5>
    141b:	0f 1f 44 00 00       	nopl   0x0(%rax,%rax,1)

0000000000001420 <__fprintf_chk@plt>:
    1420:	f3 0f 1e fa          	endbr64 
    1424:	f2 ff 25 8d 5b 00 00 	bnd jmpq *0x5b8d(%rip)        # 6fb8 <__fprintf_chk@GLIBC_2.3.4>
    142b:	0f 1f 44 00 00       	nopl   0x0(%rax,%rax,1)

0000000000001430 <getc@plt>:
    1430:	f3 0f 1e fa          	endbr64 
    1434:	f2 ff 25 85 5b 00 00 	bnd jmpq *0x5b85(%rip)        # 6fc0 <getc@GLIBC_2.2.5>
    143b:	0f 1f 44 00 00       	nopl   0x0(%rax,%rax,1)

0000000000001440 <__sprintf_chk@plt>:
    1440:	f3 0f 1e fa          	endbr64 
    1444:	f2 ff 25 7d 5b 00 00 	bnd jmpq *0x5b7d(%rip)        # 6fc8 <__sprintf_chk@GLIBC_2.3.4>
    144b:	0f 1f 44 00 00       	nopl   0x0(%rax,%rax,1)

0000000000001450 <socket@plt>:
    1450:	f3 0f 1e fa          	endbr64 
    1454:	f2 ff 25 75 5b 00 00 	bnd jmpq *0x5b75(%rip)        # 6fd0 <socket@GLIBC_2.2.5>
    145b:	0f 1f 44 00 00       	nopl   0x0(%rax,%rax,1)

Disassembly of section .text:

0000000000001460 <_start>:
    1460:	f3 0f 1e fa          	endbr64 
    1464:	31 ed                	xor    %ebp,%ebp
    1466:	49 89 d1             	mov    %rdx,%r9
    1469:	5e                   	pop    %rsi
    146a:	48 89 e2             	mov    %rsp,%rdx
    146d:	48 83 e4 f0          	and    $0xfffffffffffffff0,%rsp
    1471:	50                   	push   %rax
    1472:	54                   	push   %rsp
    1473:	4c 8d 05 26 21 00 00 	lea    0x2126(%rip),%r8        # 35a0 <__libc_csu_fini>
    147a:	48 8d 0d af 20 00 00 	lea    0x20af(%rip),%rcx        # 3530 <__libc_csu_init>
    1481:	48 8d 3d f8 02 00 00 	lea    0x2f8(%rip),%rdi        # 1780 <main>
    1488:	ff 15 52 5b 00 00    	callq  *0x5b52(%rip)        # 6fe0 <__libc_start_main@GLIBC_2.2.5>
    148e:	f4                   	hlt    
    148f:	90                   	nop

0000000000001490 <deregister_tm_clones>:
    1490:	48 8d 3d a1 5b 00 00 	lea    0x5ba1(%rip),%rdi        # 7038 <__TMC_END__>
    1497:	48 8d 05 9a 5b 00 00 	lea    0x5b9a(%rip),%rax        # 7038 <__TMC_END__>
    149e:	48 39 f8             	cmp    %rdi,%rax
    14a1:	74 15                	je     14b8 <deregister_tm_clones+0x28>
    14a3:	48 8b 05 2e 5b 00 00 	mov    0x5b2e(%rip),%rax        # 6fd8 <_ITM_deregisterTMCloneTable>
    14aa:	48 85 c0             	test   %rax,%rax
    14ad:	74 09                	je     14b8 <deregister_tm_clones+0x28>
    14af:	ff e0                	jmpq   *%rax
    14b1:	0f 1f 80 00 00 00 00 	nopl   0x0(%rax)
    14b8:	c3                   	retq   
    14b9:	0f 1f 80 00 00 00 00 	nopl   0x0(%rax)

00000000000014c0 <register_tm_clones>:
    14c0:	48 8d 3d 71 5b 00 00 	lea    0x5b71(%rip),%rdi        # 7038 <__TMC_END__>
    14c7:	48 8d 35 6a 5b 00 00 	lea    0x5b6a(%rip),%rsi        # 7038 <__TMC_END__>
    14ce:	48 29 fe             	sub    %rdi,%rsi
    14d1:	48 89 f0             	mov    %rsi,%rax
    14d4:	48 c1 ee 3f          	shr    $0x3f,%rsi
    14d8:	48 c1 f8 03          	sar    $0x3,%rax
    14dc:	48 01 c6             	add    %rax,%rsi
    14df:	48 d1 fe             	sar    %rsi
    14e2:	74 14                	je     14f8 <register_tm_clones+0x38>
    14e4:	48 8b 05 05 5b 00 00 	mov    0x5b05(%rip),%rax        # 6ff0 <_ITM_registerTMCloneTable>
    14eb:	48 85 c0             	test   %rax,%rax
    14ee:	74 08                	je     14f8 <register_tm_clones+0x38>
    14f0:	ff e0                	jmpq   *%rax
    14f2:	66 0f 1f 44 00 00    	nopw   0x0(%rax,%rax,1)
    14f8:	c3                   	retq   
    14f9:	0f 1f 80 00 00 00 00 	nopl   0x0(%rax)

0000000000001500 <__do_global_dtors_aux>:
    1500:	f3 0f 1e fa          	endbr64 
    1504:	80 3d 5d 5b 00 00 00 	cmpb   $0x0,0x5b5d(%rip)        # 7068 <completed.8061>
    150b:	75 2b                	jne    1538 <__do_global_dtors_aux+0x38>
    150d:	55                   	push   %rbp
    150e:	48 83 3d e2 5a 00 00 	cmpq   $0x0,0x5ae2(%rip)        # 6ff8 <__cxa_finalize@GLIBC_2.2.5>
    1515:	00 
    1516:	48 89 e5             	mov    %rsp,%rbp
    1519:	74 0c                	je     1527 <__do_global_dtors_aux+0x27>
    151b:	48 8b 3d e6 5a 00 00 	mov    0x5ae6(%rip),%rdi        # 7008 <__dso_handle>
    1522:	e8 19 fd ff ff       	callq  1240 <__cxa_finalize@plt>
    1527:	e8 64 ff ff ff       	callq  1490 <deregister_tm_clones>
    152c:	c6 05 35 5b 00 00 01 	movb   $0x1,0x5b35(%rip)        # 7068 <completed.8061>
    1533:	5d                   	pop    %rbp
    1534:	c3                   	retq   
    1535:	0f 1f 00             	nopl   (%rax)
    1538:	c3                   	retq   
    1539:	0f 1f 80 00 00 00 00 	nopl   0x0(%rax)

0000000000001540 <frame_dummy>:
    1540:	f3 0f 1e fa          	endbr64 
    1544:	e9 77 ff ff ff       	jmpq   14c0 <register_tm_clones>

0000000000001549 <usage>:
    1549:	50                   	push   %rax
    154a:	58                   	pop    %rax
    154b:	48 83 ec 08          	sub    $0x8,%rsp
    154f:	48 89 fa             	mov    %rdi,%rdx
    1552:	83 3d 73 5e 00 00 00 	cmpl   $0x0,0x5e73(%rip)        # 73cc <is_checker>
    1559:	74 50                	je     15ab <usage+0x62>
    155b:	48 8d 35 a6 2a 00 00 	lea    0x2aa6(%rip),%rsi        # 4008 <_IO_stdin_used+0x8>
    1562:	bf 01 00 00 00       	mov    $0x1,%edi
    1567:	b8 00 00 00 00       	mov    $0x0,%eax
    156c:	e8 3f fe ff ff       	callq  13b0 <__printf_chk@plt>
    1571:	48 8d 3d c8 2a 00 00 	lea    0x2ac8(%rip),%rdi        # 4040 <_IO_stdin_used+0x40>
    1578:	e8 23 fd ff ff       	callq  12a0 <puts@plt>
    157d:	48 8d 3d 04 2c 00 00 	lea    0x2c04(%rip),%rdi        # 4188 <_IO_stdin_used+0x188>
    1584:	e8 17 fd ff ff       	callq  12a0 <puts@plt>
    1589:	48 8d 3d d8 2a 00 00 	lea    0x2ad8(%rip),%rdi        # 4068 <_IO_stdin_used+0x68>
    1590:	e8 0b fd ff ff       	callq  12a0 <puts@plt>
    1595:	48 8d 3d 06 2c 00 00 	lea    0x2c06(%rip),%rdi        # 41a2 <_IO_stdin_used+0x1a2>
    159c:	e8 ff fc ff ff       	callq  12a0 <puts@plt>
    15a1:	bf 00 00 00 00       	mov    $0x0,%edi
    15a6:	e8 55 fe ff ff       	callq  1400 <exit@plt>
    15ab:	48 8d 35 0c 2c 00 00 	lea    0x2c0c(%rip),%rsi        # 41be <_IO_stdin_used+0x1be>
    15b2:	bf 01 00 00 00       	mov    $0x1,%edi
    15b7:	b8 00 00 00 00       	mov    $0x0,%eax
    15bc:	e8 ef fd ff ff       	callq  13b0 <__printf_chk@plt>
    15c1:	48 8d 3d c8 2a 00 00 	lea    0x2ac8(%rip),%rdi        # 4090 <_IO_stdin_used+0x90>
    15c8:	e8 d3 fc ff ff       	callq  12a0 <puts@plt>
    15cd:	48 8d 3d 08 2c 00 00 	lea    0x2c08(%rip),%rdi        # 41dc <_IO_stdin_used+0x1dc>
    15d4:	e8 c7 fc ff ff       	callq  12a0 <puts@plt>
    15d9:	eb c6                	jmp    15a1 <usage+0x58>

00000000000015db <initialize_target>:
    15db:	55                   	push   %rbp
    15dc:	53                   	push   %rbx
    15dd:	48 81 ec 00 10 00 00 	sub    $0x1000,%rsp
    15e4:	48 83 0c 24 00       	orq    $0x0,(%rsp)
    15e9:	48 81 ec 00 10 00 00 	sub    $0x1000,%rsp
    15f0:	48 83 0c 24 00       	orq    $0x0,(%rsp)
    15f5:	48 81 ec 18 01 00 00 	sub    $0x118,%rsp
    15fc:	89 f5                	mov    %esi,%ebp
    15fe:	64 48 8b 04 25 28 00 	mov    %fs:0x28,%rax
    1605:	00 00 
    1607:	48 89 84 24 08 21 00 	mov    %rax,0x2108(%rsp)
    160e:	00 
    160f:	31 c0                	xor    %eax,%eax
    1611:	89 3d a5 5d 00 00    	mov    %edi,0x5da5(%rip)        # 73bc <check_level>
    1617:	8b 3d f3 59 00 00    	mov    0x59f3(%rip),%edi        # 7010 <target_id>
    161d:	e8 de 1e 00 00       	callq  3500 <gencookie>
    1622:	89 c7                	mov    %eax,%edi
    1624:	89 05 9e 5d 00 00    	mov    %eax,0x5d9e(%rip)        # 73c8 <cookie>
    162a:	e8 d1 1e 00 00       	callq  3500 <gencookie>
    162f:	89 05 8f 5d 00 00    	mov    %eax,0x5d8f(%rip)        # 73c4 <authkey>
    1635:	8b 05 d5 59 00 00    	mov    0x59d5(%rip),%eax        # 7010 <target_id>
    163b:	8d 78 01             	lea    0x1(%rax),%edi
    163e:	e8 2d fc ff ff       	callq  1270 <srandom@plt>
    1643:	e8 38 fd ff ff       	callq  1380 <random@plt>
    1648:	48 89 c7             	mov    %rax,%rdi
    164b:	e8 20 03 00 00       	callq  1970 <scramble>
    1650:	89 c3                	mov    %eax,%ebx
    1652:	85 ed                	test   %ebp,%ebp
    1654:	75 54                	jne    16aa <initialize_target+0xcf>
    1656:	b8 00 00 00 00       	mov    $0x0,%eax
    165b:	01 d8                	add    %ebx,%eax
    165d:	0f b7 c0             	movzwl %ax,%eax
    1660:	8d 04 c5 00 01 00 00 	lea    0x100(,%rax,8),%eax
    1667:	89 c0                	mov    %eax,%eax
    1669:	48 89 05 c0 59 00 00 	mov    %rax,0x59c0(%rip)        # 7030 <buf_offset>
    1670:	c6 05 71 69 00 00 72 	movb   $0x72,0x6971(%rip)        # 7fe8 <target_prefix>
    1677:	83 3d 3a 5d 00 00 00 	cmpl   $0x0,0x5d3a(%rip)        # 73b8 <notify>
    167e:	74 09                	je     1689 <initialize_target+0xae>
    1680:	83 3d 45 5d 00 00 00 	cmpl   $0x0,0x5d45(%rip)        # 73cc <is_checker>
    1687:	74 3a                	je     16c3 <initialize_target+0xe8>
    1689:	48 8b 84 24 08 21 00 	mov    0x2108(%rsp),%rax
    1690:	00 
    1691:	64 48 33 04 25 28 00 	xor    %fs:0x28,%rax
    1698:	00 00 
    169a:	0f 85 db 00 00 00    	jne    177b <initialize_target+0x1a0>
    16a0:	48 81 c4 18 21 00 00 	add    $0x2118,%rsp
    16a7:	5b                   	pop    %rbx
    16a8:	5d                   	pop    %rbp
    16a9:	c3                   	retq   
    16aa:	bf 00 00 00 00       	mov    $0x0,%edi
    16af:	e8 bc fc ff ff       	callq  1370 <time@plt>
    16b4:	48 89 c7             	mov    %rax,%rdi
    16b7:	e8 b4 fb ff ff       	callq  1270 <srandom@plt>
    16bc:	e8 bf fc ff ff       	callq  1380 <random@plt>
    16c1:	eb 98                	jmp    165b <initialize_target+0x80>
    16c3:	48 89 e7             	mov    %rsp,%rdi
    16c6:	be 00 01 00 00       	mov    $0x100,%esi
    16cb:	e8 20 fd ff ff       	callq  13f0 <gethostname@plt>
    16d0:	89 c5                	mov    %eax,%ebp
    16d2:	85 c0                	test   %eax,%eax
    16d4:	75 26                	jne    16fc <initialize_target+0x121>
    16d6:	89 c3                	mov    %eax,%ebx
    16d8:	48 63 c3             	movslq %ebx,%rax
    16db:	48 8d 15 9e 59 00 00 	lea    0x599e(%rip),%rdx        # 7080 <host_table>
    16e2:	48 8b 3c c2          	mov    (%rdx,%rax,8),%rdi
    16e6:	48 85 ff             	test   %rdi,%rdi
    16e9:	74 2c                	je     1717 <initialize_target+0x13c>
    16eb:	48 89 e6             	mov    %rsp,%rsi
    16ee:	e8 5d fb ff ff       	callq  1250 <strcasecmp@plt>
    16f3:	85 c0                	test   %eax,%eax
    16f5:	74 1b                	je     1712 <initialize_target+0x137>
    16f7:	83 c3 01             	add    $0x1,%ebx
    16fa:	eb dc                	jmp    16d8 <initialize_target+0xfd>
    16fc:	48 8d 3d b5 29 00 00 	lea    0x29b5(%rip),%rdi        # 40b8 <_IO_stdin_used+0xb8>
    1703:	e8 98 fb ff ff       	callq  12a0 <puts@plt>
    1708:	bf 08 00 00 00       	mov    $0x8,%edi
    170d:	e8 ee fc ff ff       	callq  1400 <exit@plt>
    1712:	bd 01 00 00 00       	mov    $0x1,%ebp
    1717:	85 ed                	test   %ebp,%ebp
    1719:	74 3d                	je     1758 <initialize_target+0x17d>
    171b:	48 8d bc 24 00 01 00 	lea    0x100(%rsp),%rdi
    1722:	00 
    1723:	e8 1d 1b 00 00       	callq  3245 <init_driver>
    1728:	85 c0                	test   %eax,%eax
    172a:	0f 89 59 ff ff ff    	jns    1689 <initialize_target+0xae>
    1730:	48 8d 94 24 00 01 00 	lea    0x100(%rsp),%rdx
    1737:	00 
    1738:	48 8d 35 f1 29 00 00 	lea    0x29f1(%rip),%rsi        # 4130 <_IO_stdin_used+0x130>
    173f:	bf 01 00 00 00       	mov    $0x1,%edi
    1744:	b8 00 00 00 00       	mov    $0x0,%eax
    1749:	e8 62 fc ff ff       	callq  13b0 <__printf_chk@plt>
    174e:	bf 08 00 00 00       	mov    $0x8,%edi
    1753:	e8 a8 fc ff ff       	callq  1400 <exit@plt>
    1758:	48 89 e2             	mov    %rsp,%rdx
    175b:	48 8d 35 8e 29 00 00 	lea    0x298e(%rip),%rsi        # 40f0 <_IO_stdin_used+0xf0>
    1762:	bf 01 00 00 00       	mov    $0x1,%edi
    1767:	b8 00 00 00 00       	mov    $0x0,%eax
    176c:	e8 3f fc ff ff       	callq  13b0 <__printf_chk@plt>
    1771:	bf 08 00 00 00       	mov    $0x8,%edi
    1776:	e8 85 fc ff ff       	callq  1400 <exit@plt>
    177b:	e8 40 fb ff ff       	callq  12c0 <__stack_chk_fail@plt>

0000000000001780 <main>:
    1780:	f3 0f 1e fa          	endbr64 
    1784:	41 56                	push   %r14
    1786:	41 55                	push   %r13
    1788:	41 54                	push   %r12
    178a:	55                   	push   %rbp
    178b:	53                   	push   %rbx
    178c:	89 fd                	mov    %edi,%ebp
    178e:	48 89 f3             	mov    %rsi,%rbx
    1791:	48 8d 35 50 0d 00 00 	lea    0xd50(%rip),%rsi        # 24e8 <seghandler>
    1798:	bf 0b 00 00 00       	mov    $0xb,%edi
    179d:	e8 7e fb ff ff       	callq  1320 <signal@plt>
    17a2:	48 8d 35 e5 0c 00 00 	lea    0xce5(%rip),%rsi        # 248e <bushandler>
    17a9:	bf 07 00 00 00       	mov    $0x7,%edi
    17ae:	e8 6d fb ff ff       	callq  1320 <signal@plt>
    17b3:	48 8d 35 88 0d 00 00 	lea    0xd88(%rip),%rsi        # 2542 <illegalhandler>
    17ba:	bf 04 00 00 00       	mov    $0x4,%edi
    17bf:	e8 5c fb ff ff       	callq  1320 <signal@plt>
    17c4:	83 3d 01 5c 00 00 00 	cmpl   $0x0,0x5c01(%rip)        # 73cc <is_checker>
    17cb:	75 26                	jne    17f3 <main+0x73>
    17cd:	4c 8d 25 29 2a 00 00 	lea    0x2a29(%rip),%r12        # 41fd <_IO_stdin_used+0x1fd>
    17d4:	48 8b 05 65 58 00 00 	mov    0x5865(%rip),%rax        # 7040 <stdin@@GLIBC_2.2.5>
    17db:	48 89 05 ce 5b 00 00 	mov    %rax,0x5bce(%rip)        # 73b0 <infile>
    17e2:	41 bd 00 00 00 00    	mov    $0x0,%r13d
    17e8:	41 be 00 00 00 00    	mov    $0x0,%r14d
    17ee:	e9 8d 00 00 00       	jmpq   1880 <main+0x100>
    17f3:	48 8d 35 a2 0d 00 00 	lea    0xda2(%rip),%rsi        # 259c <sigalrmhandler>
    17fa:	bf 0e 00 00 00       	mov    $0xe,%edi
    17ff:	e8 1c fb ff ff       	callq  1320 <signal@plt>
    1804:	bf 05 00 00 00       	mov    $0x5,%edi
    1809:	e8 e2 fa ff ff       	callq  12f0 <alarm@plt>
    180e:	4c 8d 25 e0 29 00 00 	lea    0x29e0(%rip),%r12        # 41f5 <_IO_stdin_used+0x1f5>
    1815:	eb bd                	jmp    17d4 <main+0x54>
    1817:	48 8b 3b             	mov    (%rbx),%rdi
    181a:	e8 2a fd ff ff       	callq  1549 <usage>
    181f:	48 8d 35 d4 2b 00 00 	lea    0x2bd4(%rip),%rsi        # 43fa <_IO_stdin_used+0x3fa>
    1826:	48 8b 3d 1b 58 00 00 	mov    0x581b(%rip),%rdi        # 7048 <optarg@@GLIBC_2.2.5>
    182d:	e8 8e fb ff ff       	callq  13c0 <fopen@plt>
    1832:	48 89 05 77 5b 00 00 	mov    %rax,0x5b77(%rip)        # 73b0 <infile>
    1839:	48 85 c0             	test   %rax,%rax
    183c:	75 42                	jne    1880 <main+0x100>
    183e:	48 8b 0d 03 58 00 00 	mov    0x5803(%rip),%rcx        # 7048 <optarg@@GLIBC_2.2.5>
    1845:	48 8d 15 b6 29 00 00 	lea    0x29b6(%rip),%rdx        # 4202 <_IO_stdin_used+0x202>
    184c:	be 01 00 00 00       	mov    $0x1,%esi
    1851:	48 8b 3d 08 58 00 00 	mov    0x5808(%rip),%rdi        # 7060 <stderr@@GLIBC_2.2.5>
    1858:	e8 c3 fb ff ff       	callq  1420 <__fprintf_chk@plt>
    185d:	b8 01 00 00 00       	mov    $0x1,%eax
    1862:	e9 db 00 00 00       	jmpq   1942 <main+0x1c2>
    1867:	ba 10 00 00 00       	mov    $0x10,%edx
    186c:	be 00 00 00 00       	mov    $0x0,%esi
    1871:	48 8b 3d d0 57 00 00 	mov    0x57d0(%rip),%rdi        # 7048 <optarg@@GLIBC_2.2.5>
    1878:	e8 63 fb ff ff       	callq  13e0 <strtoul@plt>
    187d:	41 89 c6             	mov    %eax,%r14d
    1880:	4c 89 e2             	mov    %r12,%rdx
    1883:	48 89 de             	mov    %rbx,%rsi
    1886:	89 ef                	mov    %ebp,%edi
    1888:	e8 43 fb ff ff       	callq  13d0 <getopt@plt>
    188d:	3c ff                	cmp    $0xff,%al
    188f:	74 65                	je     18f6 <main+0x176>
    1891:	0f be c8             	movsbl %al,%ecx
    1894:	83 e8 61             	sub    $0x61,%eax
    1897:	3c 10                	cmp    $0x10,%al
    1899:	77 3b                	ja     18d6 <main+0x156>
    189b:	0f b6 c0             	movzbl %al,%eax
    189e:	48 8d 15 9b 29 00 00 	lea    0x299b(%rip),%rdx        # 4240 <_IO_stdin_used+0x240>
    18a5:	48 63 04 82          	movslq (%rdx,%rax,4),%rax
    18a9:	48 01 d0             	add    %rdx,%rax
    18ac:	3e ff e0             	notrack jmpq *%rax
    18af:	ba 0a 00 00 00       	mov    $0xa,%edx
    18b4:	be 00 00 00 00       	mov    $0x0,%esi
    18b9:	48 8b 3d 88 57 00 00 	mov    0x5788(%rip),%rdi        # 7048 <optarg@@GLIBC_2.2.5>
    18c0:	e8 8b fa ff ff       	callq  1350 <strtol@plt>
    18c5:	41 89 c5             	mov    %eax,%r13d
    18c8:	eb b6                	jmp    1880 <main+0x100>
    18ca:	c7 05 e4 5a 00 00 00 	movl   $0x0,0x5ae4(%rip)        # 73b8 <notify>
    18d1:	00 00 00 
    18d4:	eb aa                	jmp    1880 <main+0x100>
    18d6:	89 ca                	mov    %ecx,%edx
    18d8:	48 8d 35 40 29 00 00 	lea    0x2940(%rip),%rsi        # 421f <_IO_stdin_used+0x21f>
    18df:	bf 01 00 00 00       	mov    $0x1,%edi
    18e4:	b8 00 00 00 00       	mov    $0x0,%eax
    18e9:	e8 c2 fa ff ff       	callq  13b0 <__printf_chk@plt>
    18ee:	48 8b 3b             	mov    (%rbx),%rdi
    18f1:	e8 53 fc ff ff       	callq  1549 <usage>
    18f6:	be 01 00 00 00       	mov    $0x1,%esi
    18fb:	44 89 ef             	mov    %r13d,%edi
    18fe:	e8 d8 fc ff ff       	callq  15db <initialize_target>
    1903:	83 3d c2 5a 00 00 00 	cmpl   $0x0,0x5ac2(%rip)        # 73cc <is_checker>
    190a:	74 09                	je     1915 <main+0x195>
    190c:	44 39 35 b1 5a 00 00 	cmp    %r14d,0x5ab1(%rip)        # 73c4 <authkey>
    1913:	75 36                	jne    194b <main+0x1cb>
    1915:	8b 15 ad 5a 00 00    	mov    0x5aad(%rip),%edx        # 73c8 <cookie>
    191b:	48 8d 35 10 29 00 00 	lea    0x2910(%rip),%rsi        # 4232 <_IO_stdin_used+0x232>
    1922:	bf 01 00 00 00       	mov    $0x1,%edi
    1927:	b8 00 00 00 00       	mov    $0x0,%eax
    192c:	e8 7f fa ff ff       	callq  13b0 <__printf_chk@plt>
    1931:	48 8b 3d f8 56 00 00 	mov    0x56f8(%rip),%rdi        # 7030 <buf_offset>
    1938:	e8 bc 0c 00 00       	callq  25f9 <launch>
    193d:	b8 00 00 00 00       	mov    $0x0,%eax
    1942:	5b                   	pop    %rbx
    1943:	5d                   	pop    %rbp
    1944:	41 5c                	pop    %r12
    1946:	41 5d                	pop    %r13
    1948:	41 5e                	pop    %r14
    194a:	c3                   	retq   
    194b:	44 89 f2             	mov    %r14d,%edx
    194e:	48 8d 35 03 28 00 00 	lea    0x2803(%rip),%rsi        # 4158 <_IO_stdin_used+0x158>
    1955:	bf 01 00 00 00       	mov    $0x1,%edi
    195a:	b8 00 00 00 00       	mov    $0x0,%eax
    195f:	e8 4c fa ff ff       	callq  13b0 <__printf_chk@plt>
    1964:	b8 00 00 00 00       	mov    $0x0,%eax
    1969:	e8 93 08 00 00       	callq  2201 <check_fail>
    196e:	eb a5                	jmp    1915 <main+0x195>

0000000000001970 <scramble>:
    1970:	f3 0f 1e fa          	endbr64 
    1974:	48 83 ec 38          	sub    $0x38,%rsp
    1978:	64 48 8b 04 25 28 00 	mov    %fs:0x28,%rax
    197f:	00 00 
    1981:	48 89 44 24 28       	mov    %rax,0x28(%rsp)
    1986:	31 c0                	xor    %eax,%eax
    1988:	83 f8 09             	cmp    $0x9,%eax
    198b:	77 12                	ja     199f <scramble+0x2f>
    198d:	69 d0 1b e7 00 00    	imul   $0xe71b,%eax,%edx
    1993:	01 fa                	add    %edi,%edx
    1995:	89 c1                	mov    %eax,%ecx
    1997:	89 14 8c             	mov    %edx,(%rsp,%rcx,4)
    199a:	83 c0 01             	add    $0x1,%eax
    199d:	eb e9                	jmp    1988 <scramble+0x18>
    199f:	8b 44 24 04          	mov    0x4(%rsp),%eax
    19a3:	69 c0 18 bf 00 00    	imul   $0xbf18,%eax,%eax
    19a9:	89 44 24 04          	mov    %eax,0x4(%rsp)
    19ad:	8b 44 24 0c          	mov    0xc(%rsp),%eax
    19b1:	69 c0 7a 0d 00 00    	imul   $0xd7a,%eax,%eax
    19b7:	89 44 24 0c          	mov    %eax,0xc(%rsp)
    19bb:	8b 44 24 10          	mov    0x10(%rsp),%eax
    19bf:	69 c0 a4 c2 00 00    	imul   $0xc2a4,%eax,%eax
    19c5:	89 44 24 10          	mov    %eax,0x10(%rsp)
    19c9:	8b 44 24 18          	mov    0x18(%rsp),%eax
    19cd:	69 c0 13 87 00 00    	imul   $0x8713,%eax,%eax
    19d3:	89 44 24 18          	mov    %eax,0x18(%rsp)
    19d7:	8b 04 24             	mov    (%rsp),%eax
    19da:	69 c0 3d 8b 00 00    	imul   $0x8b3d,%eax,%eax
    19e0:	89 04 24             	mov    %eax,(%rsp)
    19e3:	8b 44 24 08          	mov    0x8(%rsp),%eax
    19e7:	69 c0 13 54 00 00    	imul   $0x5413,%eax,%eax
    19ed:	89 44 24 08          	mov    %eax,0x8(%rsp)
    19f1:	8b 44 24 08          	mov    0x8(%rsp),%eax
    19f5:	69 c0 29 0a 00 00    	imul   $0xa29,%eax,%eax
    19fb:	89 44 24 08          	mov    %eax,0x8(%rsp)
    19ff:	8b 44 24 04          	mov    0x4(%rsp),%eax
    1a03:	69 c0 65 a5 00 00    	imul   $0xa565,%eax,%eax
    1a09:	89 44 24 04          	mov    %eax,0x4(%rsp)
    1a0d:	8b 04 24             	mov    (%rsp),%eax
    1a10:	69 c0 08 98 00 00    	imul   $0x9808,%eax,%eax
    1a16:	89 04 24             	mov    %eax,(%rsp)
    1a19:	8b 44 24 1c          	mov    0x1c(%rsp),%eax
    1a1d:	69 c0 9b df 00 00    	imul   $0xdf9b,%eax,%eax
    1a23:	89 44 24 1c          	mov    %eax,0x1c(%rsp)
    1a27:	8b 44 24 10          	mov    0x10(%rsp),%eax
    1a2b:	69 c0 8e 8a 00 00    	imul   $0x8a8e,%eax,%eax
    1a31:	89 44 24 10          	mov    %eax,0x10(%rsp)
    1a35:	8b 44 24 20          	mov    0x20(%rsp),%eax
    1a39:	69 c0 d8 9c 00 00    	imul   $0x9cd8,%eax,%eax
    1a3f:	89 44 24 20          	mov    %eax,0x20(%rsp)
    1a43:	8b 44 24 08          	mov    0x8(%rsp),%eax
    1a47:	69 c0 5a 15 00 00    	imul   $0x155a,%eax,%eax
    1a4d:	89 44 24 08          	mov    %eax,0x8(%rsp)
    1a51:	8b 44 24 20          	mov    0x20(%rsp),%eax
    1a55:	69 c0 24 c3 00 00    	imul   $0xc324,%eax,%eax
    1a5b:	89 44 24 20          	mov    %eax,0x20(%rsp)
    1a5f:	8b 44 24 20          	mov    0x20(%rsp),%eax
    1a63:	69 c0 e3 1d 00 00    	imul   $0x1de3,%eax,%eax
    1a69:	89 44 24 20          	mov    %eax,0x20(%rsp)
    1a6d:	8b 44 24 04          	mov    0x4(%rsp),%eax
    1a71:	69 c0 fa 45 00 00    	imul   $0x45fa,%eax,%eax
    1a77:	89 44 24 04          	mov    %eax,0x4(%rsp)
    1a7b:	8b 44 24 20          	mov    0x20(%rsp),%eax
    1a7f:	69 c0 a6 aa 00 00    	imul   $0xaaa6,%eax,%eax
    1a85:	89 44 24 20          	mov    %eax,0x20(%rsp)
    1a89:	8b 44 24 08          	mov    0x8(%rsp),%eax
    1a8d:	69 c0 86 9c 00 00    	imul   $0x9c86,%eax,%eax
    1a93:	89 44 24 08          	mov    %eax,0x8(%rsp)
    1a97:	8b 04 24             	mov    (%rsp),%eax
    1a9a:	69 c0 b3 40 00 00    	imul   $0x40b3,%eax,%eax
    1aa0:	89 04 24             	mov    %eax,(%rsp)
    1aa3:	8b 44 24 10          	mov    0x10(%rsp),%eax
    1aa7:	69 c0 82 fc 00 00    	imul   $0xfc82,%eax,%eax
    1aad:	89 44 24 10          	mov    %eax,0x10(%rsp)
    1ab1:	8b 44 24 04          	mov    0x4(%rsp),%eax
    1ab5:	69 c0 5a 51 00 00    	imul   $0x515a,%eax,%eax
    1abb:	89 44 24 04          	mov    %eax,0x4(%rsp)
    1abf:	8b 44 24 20          	mov    0x20(%rsp),%eax
    1ac3:	69 c0 6e d5 00 00    	imul   $0xd56e,%eax,%eax
    1ac9:	89 44 24 20          	mov    %eax,0x20(%rsp)
    1acd:	8b 44 24 10          	mov    0x10(%rsp),%eax
    1ad1:	69 c0 14 0a 00 00    	imul   $0xa14,%eax,%eax
    1ad7:	89 44 24 10          	mov    %eax,0x10(%rsp)
    1adb:	8b 44 24 20          	mov    0x20(%rsp),%eax
    1adf:	69 c0 01 fc 00 00    	imul   $0xfc01,%eax,%eax
    1ae5:	89 44 24 20          	mov    %eax,0x20(%rsp)
    1ae9:	8b 44 24 10          	mov    0x10(%rsp),%eax
    1aed:	69 c0 b8 6f 00 00    	imul   $0x6fb8,%eax,%eax
    1af3:	89 44 24 10          	mov    %eax,0x10(%rsp)
    1af7:	8b 44 24 24          	mov    0x24(%rsp),%eax
    1afb:	69 c0 8d b6 00 00    	imul   $0xb68d,%eax,%eax
    1b01:	89 44 24 24          	mov    %eax,0x24(%rsp)
    1b05:	8b 44 24 08          	mov    0x8(%rsp),%eax
    1b09:	69 c0 34 ef 00 00    	imul   $0xef34,%eax,%eax
    1b0f:	89 44 24 08          	mov    %eax,0x8(%rsp)
    1b13:	8b 44 24 20          	mov    0x20(%rsp),%eax
    1b17:	69 c0 3b 9c 00 00    	imul   $0x9c3b,%eax,%eax
    1b1d:	89 44 24 20          	mov    %eax,0x20(%rsp)
    1b21:	8b 44 24 1c          	mov    0x1c(%rsp),%eax
    1b25:	69 c0 6a 6b 00 00    	imul   $0x6b6a,%eax,%eax
    1b2b:	89 44 24 1c          	mov    %eax,0x1c(%rsp)
    1b2f:	8b 04 24             	mov    (%rsp),%eax
    1b32:	69 c0 6c 63 00 00    	imul   $0x636c,%eax,%eax
    1b38:	89 04 24             	mov    %eax,(%rsp)
    1b3b:	8b 44 24 08          	mov    0x8(%rsp),%eax
    1b3f:	69 c0 de c5 00 00    	imul   $0xc5de,%eax,%eax
    1b45:	89 44 24 08          	mov    %eax,0x8(%rsp)
    1b49:	8b 44 24 20          	mov    0x20(%rsp),%eax
    1b4d:	69 c0 49 66 00 00    	imul   $0x6649,%eax,%eax
    1b53:	89 44 24 20          	mov    %eax,0x20(%rsp)
    1b57:	8b 04 24             	mov    (%rsp),%eax
    1b5a:	69 c0 db fc 00 00    	imul   $0xfcdb,%eax,%eax
    1b60:	89 04 24             	mov    %eax,(%rsp)
    1b63:	8b 44 24 10          	mov    0x10(%rsp),%eax
    1b67:	69 c0 ce dd 00 00    	imul   $0xddce,%eax,%eax
    1b6d:	89 44 24 10          	mov    %eax,0x10(%rsp)
    1b71:	8b 04 24             	mov    (%rsp),%eax
    1b74:	69 c0 6a 26 00 00    	imul   $0x266a,%eax,%eax
    1b7a:	89 04 24             	mov    %eax,(%rsp)
    1b7d:	8b 44 24 08          	mov    0x8(%rsp),%eax
    1b81:	69 c0 7e 09 00 00    	imul   $0x97e,%eax,%eax
    1b87:	89 44 24 08          	mov    %eax,0x8(%rsp)
    1b8b:	8b 44 24 04          	mov    0x4(%rsp),%eax
    1b8f:	69 c0 e5 2a 00 00    	imul   $0x2ae5,%eax,%eax
    1b95:	89 44 24 04          	mov    %eax,0x4(%rsp)
    1b99:	8b 44 24 04          	mov    0x4(%rsp),%eax
    1b9d:	69 c0 48 d3 00 00    	imul   $0xd348,%eax,%eax
    1ba3:	89 44 24 04          	mov    %eax,0x4(%rsp)
    1ba7:	8b 44 24 04          	mov    0x4(%rsp),%eax
    1bab:	69 c0 c1 59 00 00    	imul   $0x59c1,%eax,%eax
    1bb1:	89 44 24 04          	mov    %eax,0x4(%rsp)
    1bb5:	8b 44 24 14          	mov    0x14(%rsp),%eax
    1bb9:	69 c0 15 d7 00 00    	imul   $0xd715,%eax,%eax
    1bbf:	89 44 24 14          	mov    %eax,0x14(%rsp)
    1bc3:	8b 44 24 1c          	mov    0x1c(%rsp),%eax
    1bc7:	69 c0 e5 aa 00 00    	imul   $0xaae5,%eax,%eax
    1bcd:	89 44 24 1c          	mov    %eax,0x1c(%rsp)
    1bd1:	8b 44 24 1c          	mov    0x1c(%rsp),%eax
    1bd5:	69 c0 c0 c3 00 00    	imul   $0xc3c0,%eax,%eax
    1bdb:	89 44 24 1c          	mov    %eax,0x1c(%rsp)
    1bdf:	8b 44 24 0c          	mov    0xc(%rsp),%eax
    1be3:	69 c0 09 e1 00 00    	imul   $0xe109,%eax,%eax
    1be9:	89 44 24 0c          	mov    %eax,0xc(%rsp)
    1bed:	8b 44 24 1c          	mov    0x1c(%rsp),%eax
    1bf1:	69 c0 a7 9e 00 00    	imul   $0x9ea7,%eax,%eax
    1bf7:	89 44 24 1c          	mov    %eax,0x1c(%rsp)
    1bfb:	8b 44 24 18          	mov    0x18(%rsp),%eax
    1bff:	69 c0 5b bf 00 00    	imul   $0xbf5b,%eax,%eax
    1c05:	89 44 24 18          	mov    %eax,0x18(%rsp)
    1c09:	8b 44 24 24          	mov    0x24(%rsp),%eax
    1c0d:	69 c0 c1 d5 00 00    	imul   $0xd5c1,%eax,%eax
    1c13:	89 44 24 24          	mov    %eax,0x24(%rsp)
    1c17:	8b 44 24 0c          	mov    0xc(%rsp),%eax
    1c1b:	69 c0 7a ab 00 00    	imul   $0xab7a,%eax,%eax
    1c21:	89 44 24 0c          	mov    %eax,0xc(%rsp)
    1c25:	8b 44 24 04          	mov    0x4(%rsp),%eax
    1c29:	69 c0 bd f5 00 00    	imul   $0xf5bd,%eax,%eax
    1c2f:	89 44 24 04          	mov    %eax,0x4(%rsp)
    1c33:	8b 44 24 24          	mov    0x24(%rsp),%eax
    1c37:	69 c0 db 3e 00 00    	imul   $0x3edb,%eax,%eax
    1c3d:	89 44 24 24          	mov    %eax,0x24(%rsp)
    1c41:	8b 44 24 14          	mov    0x14(%rsp),%eax
    1c45:	69 c0 e3 e5 00 00    	imul   $0xe5e3,%eax,%eax
    1c4b:	89 44 24 14          	mov    %eax,0x14(%rsp)
    1c4f:	8b 04 24             	mov    (%rsp),%eax
    1c52:	69 c0 db ad 00 00    	imul   $0xaddb,%eax,%eax
    1c58:	89 04 24             	mov    %eax,(%rsp)
    1c5b:	8b 44 24 08          	mov    0x8(%rsp),%eax
    1c5f:	69 c0 09 dd 00 00    	imul   $0xdd09,%eax,%eax
    1c65:	89 44 24 08          	mov    %eax,0x8(%rsp)
    1c69:	8b 44 24 08          	mov    0x8(%rsp),%eax
    1c6d:	69 c0 4f ce 00 00    	imul   $0xce4f,%eax,%eax
    1c73:	89 44 24 08          	mov    %eax,0x8(%rsp)
    1c77:	8b 44 24 08          	mov    0x8(%rsp),%eax
    1c7b:	69 c0 ba 0d 00 00    	imul   $0xdba,%eax,%eax
    1c81:	89 44 24 08          	mov    %eax,0x8(%rsp)
    1c85:	8b 44 24 14          	mov    0x14(%rsp),%eax
    1c89:	69 c0 9b 7f 00 00    	imul   $0x7f9b,%eax,%eax
    1c8f:	89 44 24 14          	mov    %eax,0x14(%rsp)
    1c93:	8b 44 24 0c          	mov    0xc(%rsp),%eax
    1c97:	69 c0 89 f1 00 00    	imul   $0xf189,%eax,%eax
    1c9d:	89 44 24 0c          	mov    %eax,0xc(%rsp)
    1ca1:	8b 44 24 10          	mov    0x10(%rsp),%eax
    1ca5:	69 c0 72 72 00 00    	imul   $0x7272,%eax,%eax
    1cab:	89 44 24 10          	mov    %eax,0x10(%rsp)
    1caf:	8b 44 24 0c          	mov    0xc(%rsp),%eax
    1cb3:	69 c0 9a c4 00 00    	imul   $0xc49a,%eax,%eax
    1cb9:	89 44 24 0c          	mov    %eax,0xc(%rsp)
    1cbd:	8b 04 24             	mov    (%rsp),%eax
    1cc0:	69 c0 45 15 00 00    	imul   $0x1545,%eax,%eax
    1cc6:	89 04 24             	mov    %eax,(%rsp)
    1cc9:	8b 44 24 08          	mov    0x8(%rsp),%eax
    1ccd:	69 c0 ef 9f 00 00    	imul   $0x9fef,%eax,%eax
    1cd3:	89 44 24 08          	mov    %eax,0x8(%rsp)
    1cd7:	8b 04 24             	mov    (%rsp),%eax
    1cda:	69 c0 56 65 00 00    	imul   $0x6556,%eax,%eax
    1ce0:	89 04 24             	mov    %eax,(%rsp)
    1ce3:	8b 44 24 20          	mov    0x20(%rsp),%eax
    1ce7:	69 c0 d9 59 00 00    	imul   $0x59d9,%eax,%eax
    1ced:	89 44 24 20          	mov    %eax,0x20(%rsp)
    1cf1:	8b 44 24 20          	mov    0x20(%rsp),%eax
    1cf5:	69 c0 bb b1 00 00    	imul   $0xb1bb,%eax,%eax
    1cfb:	89 44 24 20          	mov    %eax,0x20(%rsp)
    1cff:	8b 44 24 20          	mov    0x20(%rsp),%eax
    1d03:	69 c0 26 b9 00 00    	imul   $0xb926,%eax,%eax
    1d09:	89 44 24 20          	mov    %eax,0x20(%rsp)
    1d0d:	8b 44 24 04          	mov    0x4(%rsp),%eax
    1d11:	69 c0 21 23 00 00    	imul   $0x2321,%eax,%eax
    1d17:	89 44 24 04          	mov    %eax,0x4(%rsp)
    1d1b:	8b 44 24 20          	mov    0x20(%rsp),%eax
    1d1f:	69 c0 db 55 00 00    	imul   $0x55db,%eax,%eax
    1d25:	89 44 24 20          	mov    %eax,0x20(%rsp)
    1d29:	8b 44 24 14          	mov    0x14(%rsp),%eax
    1d2d:	69 c0 6b 8e 00 00    	imul   $0x8e6b,%eax,%eax
    1d33:	89 44 24 14          	mov    %eax,0x14(%rsp)
    1d37:	8b 44 24 20          	mov    0x20(%rsp),%eax
    1d3b:	69 c0 bd a9 00 00    	imul   $0xa9bd,%eax,%eax
    1d41:	89 44 24 20          	mov    %eax,0x20(%rsp)
    1d45:	8b 44 24 24          	mov    0x24(%rsp),%eax
    1d49:	69 c0 37 e3 00 00    	imul   $0xe337,%eax,%eax
    1d4f:	89 44 24 24          	mov    %eax,0x24(%rsp)
    1d53:	8b 44 24 10          	mov    0x10(%rsp),%eax
    1d57:	69 c0 ca 84 00 00    	imul   $0x84ca,%eax,%eax
    1d5d:	89 44 24 10          	mov    %eax,0x10(%rsp)
    1d61:	8b 04 24             	mov    (%rsp),%eax
    1d64:	69 c0 46 9c 00 00    	imul   $0x9c46,%eax,%eax
    1d6a:	89 04 24             	mov    %eax,(%rsp)
    1d6d:	b8 00 00 00 00       	mov    $0x0,%eax
    1d72:	ba 00 00 00 00       	mov    $0x0,%edx
    1d77:	83 f8 09             	cmp    $0x9,%eax
    1d7a:	77 0c                	ja     1d88 <scramble+0x418>
    1d7c:	89 c1                	mov    %eax,%ecx
    1d7e:	8b 0c 8c             	mov    (%rsp,%rcx,4),%ecx
    1d81:	01 ca                	add    %ecx,%edx
    1d83:	83 c0 01             	add    $0x1,%eax
    1d86:	eb ef                	jmp    1d77 <scramble+0x407>
    1d88:	48 8b 44 24 28       	mov    0x28(%rsp),%rax
    1d8d:	64 48 33 04 25 28 00 	xor    %fs:0x28,%rax
    1d94:	00 00 
    1d96:	75 07                	jne    1d9f <scramble+0x42f>
    1d98:	89 d0                	mov    %edx,%eax
    1d9a:	48 83 c4 38          	add    $0x38,%rsp
    1d9e:	c3                   	retq   
    1d9f:	e8 1c f5 ff ff       	callq  12c0 <__stack_chk_fail@plt>

0000000000001da4 <getbuf>:
    1da4:	f3 0f 1e fa          	endbr64 
    1da8:	48 83 ec 38          	sub    $0x38,%rsp
    1dac:	48 89 e7             	mov    %rsp,%rdi
    1daf:	e8 8b 04 00 00       	callq  223f <Gets>
    1db4:	b8 01 00 00 00       	mov    $0x1,%eax
    1db9:	48 83 c4 38          	add    $0x38,%rsp
    1dbd:	c3                   	retq   

0000000000001dbe <touch1>:
    1dbe:	f3 0f 1e fa          	endbr64 
    1dc2:	50                   	push   %rax
    1dc3:	58                   	pop    %rax
    1dc4:	48 83 ec 08          	sub    $0x8,%rsp
    1dc8:	c7 05 ee 55 00 00 01 	movl   $0x1,0x55ee(%rip)        # 73c0 <vlevel>
    1dcf:	00 00 00 
    1dd2:	48 8d 3d c3 24 00 00 	lea    0x24c3(%rip),%rdi        # 429c <_IO_stdin_used+0x29c>
    1dd9:	e8 c2 f4 ff ff       	callq  12a0 <puts@plt>
    1dde:	bf 01 00 00 00       	mov    $0x1,%edi
    1de3:	e8 a6 05 00 00       	callq  238e <validate>
    1de8:	bf 00 00 00 00       	mov    $0x0,%edi
    1ded:	e8 0e f6 ff ff       	callq  1400 <exit@plt>

0000000000001df2 <touch2>:
    1df2:	f3 0f 1e fa          	endbr64 
    1df6:	50                   	push   %rax
    1df7:	58                   	pop    %rax
    1df8:	48 83 ec 08          	sub    $0x8,%rsp
    1dfc:	89 fa                	mov    %edi,%edx
    1dfe:	c7 05 b8 55 00 00 02 	movl   $0x2,0x55b8(%rip)        # 73c0 <vlevel>
    1e05:	00 00 00 
    1e08:	39 3d ba 55 00 00    	cmp    %edi,0x55ba(%rip)        # 73c8 <cookie>
    1e0e:	74 2a                	je     1e3a <touch2+0x48>
    1e10:	48 8d 35 d1 24 00 00 	lea    0x24d1(%rip),%rsi        # 42e8 <_IO_stdin_used+0x2e8>
    1e17:	bf 01 00 00 00       	mov    $0x1,%edi
    1e1c:	b8 00 00 00 00       	mov    $0x0,%eax
    1e21:	e8 8a f5 ff ff       	callq  13b0 <__printf_chk@plt>
    1e26:	bf 02 00 00 00       	mov    $0x2,%edi
    1e2b:	e8 32 06 00 00       	callq  2462 <fail>
    1e30:	bf 00 00 00 00       	mov    $0x0,%edi
    1e35:	e8 c6 f5 ff ff       	callq  1400 <exit@plt>
    1e3a:	48 8d 35 7f 24 00 00 	lea    0x247f(%rip),%rsi        # 42c0 <_IO_stdin_used+0x2c0>
    1e41:	bf 01 00 00 00       	mov    $0x1,%edi
    1e46:	b8 00 00 00 00       	mov    $0x0,%eax
    1e4b:	e8 60 f5 ff ff       	callq  13b0 <__printf_chk@plt>
    1e50:	bf 02 00 00 00       	mov    $0x2,%edi
    1e55:	e8 34 05 00 00       	callq  238e <validate>
    1e5a:	eb d4                	jmp    1e30 <touch2+0x3e>

0000000000001e5c <hexmatch>:
    1e5c:	f3 0f 1e fa          	endbr64 
    1e60:	41 55                	push   %r13
    1e62:	41 54                	push   %r12
    1e64:	55                   	push   %rbp
    1e65:	53                   	push   %rbx
    1e66:	48 81 ec 88 00 00 00 	sub    $0x88,%rsp
    1e6d:	89 fd                	mov    %edi,%ebp
    1e6f:	48 89 f3             	mov    %rsi,%rbx
    1e72:	41 bc 28 00 00 00    	mov    $0x28,%r12d
    1e78:	64 49 8b 04 24       	mov    %fs:(%r12),%rax
    1e7d:	48 89 44 24 78       	mov    %rax,0x78(%rsp)
    1e82:	31 c0                	xor    %eax,%eax
    1e84:	e8 f7 f4 ff ff       	callq  1380 <random@plt>
    1e89:	48 89 c1             	mov    %rax,%rcx
    1e8c:	48 ba 0b d7 a3 70 3d 	movabs $0xa3d70a3d70a3d70b,%rdx
    1e93:	0a d7 a3 
    1e96:	48 f7 ea             	imul   %rdx
    1e99:	48 01 ca             	add    %rcx,%rdx
    1e9c:	48 c1 fa 06          	sar    $0x6,%rdx
    1ea0:	48 89 c8             	mov    %rcx,%rax
    1ea3:	48 c1 f8 3f          	sar    $0x3f,%rax
    1ea7:	48 29 c2             	sub    %rax,%rdx
    1eaa:	48 8d 04 92          	lea    (%rdx,%rdx,4),%rax
    1eae:	48 8d 04 80          	lea    (%rax,%rax,4),%rax
    1eb2:	48 c1 e0 02          	shl    $0x2,%rax
    1eb6:	48 29 c1             	sub    %rax,%rcx
    1eb9:	4c 8d 2c 0c          	lea    (%rsp,%rcx,1),%r13
    1ebd:	41 89 e8             	mov    %ebp,%r8d
    1ec0:	48 8d 0d f2 23 00 00 	lea    0x23f2(%rip),%rcx        # 42b9 <_IO_stdin_used+0x2b9>
    1ec7:	48 c7 c2 ff ff ff ff 	mov    $0xffffffffffffffff,%rdx
    1ece:	be 01 00 00 00       	mov    $0x1,%esi
    1ed3:	4c 89 ef             	mov    %r13,%rdi
    1ed6:	b8 00 00 00 00       	mov    $0x0,%eax
    1edb:	e8 60 f5 ff ff       	callq  1440 <__sprintf_chk@plt>
    1ee0:	ba 09 00 00 00       	mov    $0x9,%edx
    1ee5:	4c 89 ee             	mov    %r13,%rsi
    1ee8:	48 89 df             	mov    %rbx,%rdi
    1eeb:	e8 90 f3 ff ff       	callq  1280 <strncmp@plt>
    1ef0:	85 c0                	test   %eax,%eax
    1ef2:	0f 94 c0             	sete   %al
    1ef5:	48 8b 5c 24 78       	mov    0x78(%rsp),%rbx
    1efa:	64 49 33 1c 24       	xor    %fs:(%r12),%rbx
    1eff:	75 11                	jne    1f12 <hexmatch+0xb6>
    1f01:	0f b6 c0             	movzbl %al,%eax
    1f04:	48 81 c4 88 00 00 00 	add    $0x88,%rsp
    1f0b:	5b                   	pop    %rbx
    1f0c:	5d                   	pop    %rbp
    1f0d:	41 5c                	pop    %r12
    1f0f:	41 5d                	pop    %r13
    1f11:	c3                   	retq   
    1f12:	e8 a9 f3 ff ff       	callq  12c0 <__stack_chk_fail@plt>

0000000000001f17 <touch3>:
    1f17:	f3 0f 1e fa          	endbr64 
    1f1b:	53                   	push   %rbx
    1f1c:	48 89 fb             	mov    %rdi,%rbx
    1f1f:	c7 05 97 54 00 00 03 	movl   $0x3,0x5497(%rip)        # 73c0 <vlevel>
    1f26:	00 00 00 
    1f29:	48 89 fe             	mov    %rdi,%rsi
    1f2c:	8b 3d 96 54 00 00    	mov    0x5496(%rip),%edi        # 73c8 <cookie>
    1f32:	e8 25 ff ff ff       	callq  1e5c <hexmatch>
    1f37:	85 c0                	test   %eax,%eax
    1f39:	74 2d                	je     1f68 <touch3+0x51>
    1f3b:	48 89 da             	mov    %rbx,%rdx
    1f3e:	48 8d 35 cb 23 00 00 	lea    0x23cb(%rip),%rsi        # 4310 <_IO_stdin_used+0x310>
    1f45:	bf 01 00 00 00       	mov    $0x1,%edi
    1f4a:	b8 00 00 00 00       	mov    $0x0,%eax
    1f4f:	e8 5c f4 ff ff       	callq  13b0 <__printf_chk@plt>
    1f54:	bf 03 00 00 00       	mov    $0x3,%edi
    1f59:	e8 30 04 00 00       	callq  238e <validate>
    1f5e:	bf 00 00 00 00       	mov    $0x0,%edi
    1f63:	e8 98 f4 ff ff       	callq  1400 <exit@plt>
    1f68:	48 89 da             	mov    %rbx,%rdx
    1f6b:	48 8d 35 c6 23 00 00 	lea    0x23c6(%rip),%rsi        # 4338 <_IO_stdin_used+0x338>
    1f72:	bf 01 00 00 00       	mov    $0x1,%edi
    1f77:	b8 00 00 00 00       	mov    $0x0,%eax
    1f7c:	e8 2f f4 ff ff       	callq  13b0 <__printf_chk@plt>
    1f81:	bf 03 00 00 00       	mov    $0x3,%edi
    1f86:	e8 d7 04 00 00       	callq  2462 <fail>
    1f8b:	eb d1                	jmp    1f5e <touch3+0x47>

0000000000001f8d <test>:
    1f8d:	f3 0f 1e fa          	endbr64 
    1f91:	48 83 ec 08          	sub    $0x8,%rsp
    1f95:	b8 00 00 00 00       	mov    $0x0,%eax
    1f9a:	e8 05 fe ff ff       	callq  1da4 <getbuf>
    1f9f:	89 c2                	mov    %eax,%edx
    1fa1:	48 8d 35 b8 23 00 00 	lea    0x23b8(%rip),%rsi        # 4360 <_IO_stdin_used+0x360>
    1fa8:	bf 01 00 00 00       	mov    $0x1,%edi
    1fad:	b8 00 00 00 00       	mov    $0x0,%eax
    1fb2:	e8 f9 f3 ff ff       	callq  13b0 <__printf_chk@plt>
    1fb7:	48 83 c4 08          	add    $0x8,%rsp
    1fbb:	c3                   	retq   

0000000000001fbc <start_farm>:
    1fbc:	f3 0f 1e fa          	endbr64 
    1fc0:	b8 01 00 00 00       	mov    $0x1,%eax
    1fc5:	c3                   	retq   

0000000000001fc6 <setval_357>:
    1fc6:	f3 0f 1e fa          	endbr64 
    1fca:	c7 07 48 89 c7 c3    	movl   $0xc3c78948,(%rdi)
    1fd0:	c3                   	retq   

0000000000001fd1 <setval_334>:
    1fd1:	f3 0f 1e fa          	endbr64 
    1fd5:	c7 07 48 89 c7 c2    	movl   $0xc2c78948,(%rdi)
    1fdb:	c3                   	retq   

0000000000001fdc <addval_145>:
    1fdc:	f3 0f 1e fa          	endbr64 
    1fe0:	8d 87 4c 89 c7 c3    	lea    -0x3c3876b4(%rdi),%eax
    1fe6:	c3                   	retq   

0000000000001fe7 <addval_478>:
    1fe7:	f3 0f 1e fa          	endbr64 
    1feb:	8d 87 11 30 58 91    	lea    -0x6ea7cfef(%rdi),%eax
    1ff1:	c3                   	retq   

0000000000001ff2 <addval_251>:
    1ff2:	f3 0f 1e fa          	endbr64 
    1ff6:	8d 87 71 4f 4c 58    	lea    0x584c4f71(%rdi),%eax
    1ffc:	c3                   	retq   

0000000000001ffd <setval_158>:
    1ffd:	f3 0f 1e fa          	endbr64 
    2001:	c7 07 c8 48 89 c7    	movl   $0xc78948c8,(%rdi)
    2007:	c3                   	retq   

0000000000002008 <addval_475>:
    2008:	f3 0f 1e fa          	endbr64 
    200c:	8d 87 20 1c 58 91    	lea    -0x6ea7e3e0(%rdi),%eax
    2012:	c3                   	retq   

0000000000002013 <setval_202>:
    2013:	f3 0f 1e fa          	endbr64 
    2017:	c7 07 f1 58 90 90    	movl   $0x909058f1,(%rdi)
    201d:	c3                   	retq   

000000000000201e <mid_farm>:
    201e:	f3 0f 1e fa          	endbr64 
    2022:	b8 01 00 00 00       	mov    $0x1,%eax
    2027:	c3                   	retq   

0000000000002028 <add_xy>:
    2028:	f3 0f 1e fa          	endbr64 
    202c:	48 8d 04 37          	lea    (%rdi,%rsi,1),%rax
    2030:	c3                   	retq   

0000000000002031 <getval_373>:
    2031:	f3 0f 1e fa          	endbr64 
    2035:	b8 47 ee 89 c1       	mov    $0xc189ee47,%eax
    203a:	c3                   	retq   

000000000000203b <setval_476>:
    203b:	f3 0f 1e fa          	endbr64 
    203f:	c7 07 dd 49 89 e0    	movl   $0xe08949dd,(%rdi)
    2045:	c3                   	retq   

0000000000002046 <setval_322>:
    2046:	f3 0f 1e fa          	endbr64 
    204a:	c7 07 89 c1 c2 12    	movl   $0x12c2c189,(%rdi)
    2050:	c3                   	retq   

0000000000002051 <addval_214>:
    2051:	f3 0f 1e fa          	endbr64 
    2055:	8d 87 09 c1 90 c3    	lea    -0x3c6f3ef7(%rdi),%eax
    205b:	c3                   	retq   

000000000000205c <setval_170>:
    205c:	f3 0f 1e fa          	endbr64 
    2060:	c7 07 09 d6 90 90    	movl   $0x9090d609,(%rdi)
    2066:	c3                   	retq   

0000000000002067 <setval_147>:
    2067:	f3 0f 1e fa          	endbr64 
    206b:	c7 07 09 ca 84 c9    	movl   $0xc984ca09,(%rdi)
    2071:	c3                   	retq   

0000000000002072 <setval_159>:
    2072:	f3 0f 1e fa          	endbr64 
    2076:	c7 07 48 89 e0 c3    	movl   $0xc3e08948,(%rdi)
    207c:	c3                   	retq   

000000000000207d <setval_408>:
    207d:	f3 0f 1e fa          	endbr64 
    2081:	c7 07 89 ca 92 90    	movl   $0x9092ca89,(%rdi)
    2087:	c3                   	retq   

0000000000002088 <getval_148>:
    2088:	f3 0f 1e fa          	endbr64 
    208c:	b8 4a 89 e0 c3       	mov    $0xc3e0894a,%eax
    2091:	c3                   	retq   

0000000000002092 <setval_479>:
    2092:	f3 0f 1e fa          	endbr64 
    2096:	c7 07 88 ca 08 d2    	movl   $0xd208ca88,(%rdi)
    209c:	c3                   	retq   

000000000000209d <addval_343>:
    209d:	f3 0f 1e fa          	endbr64 
    20a1:	8d 87 89 d6 18 c0    	lea    -0x3fe72977(%rdi),%eax
    20a7:	c3                   	retq   

00000000000020a8 <addval_134>:
    20a8:	f3 0f 1e fa          	endbr64 
    20ac:	8d 87 a4 df 89 ca    	lea    -0x3576205c(%rdi),%eax
    20b2:	c3                   	retq   

00000000000020b3 <setval_483>:
    20b3:	f3 0f 1e fa          	endbr64 
    20b7:	c7 07 ac 89 d6 c2    	movl   $0xc2d689ac,(%rdi)
    20bd:	c3                   	retq   

00000000000020be <addval_301>:
    20be:	f3 0f 1e fa          	endbr64 
    20c2:	8d 87 48 a9 e0 c3    	lea    -0x3c1f56b8(%rdi),%eax
    20c8:	c3                   	retq   

00000000000020c9 <getval_490>:
    20c9:	f3 0f 1e fa          	endbr64 
    20cd:	b8 89 c1 90 c1       	mov    $0xc190c189,%eax
    20d2:	c3                   	retq   

00000000000020d3 <getval_193>:
    20d3:	f3 0f 1e fa          	endbr64 
    20d7:	b8 dc f4 89 d6       	mov    $0xd689f4dc,%eax
    20dc:	c3                   	retq   

00000000000020dd <setval_194>:
    20dd:	f3 0f 1e fa          	endbr64 
    20e1:	c7 07 89 d6 18 c0    	movl   $0xc018d689,(%rdi)
    20e7:	c3                   	retq   

00000000000020e8 <addval_208>:
    20e8:	f3 0f 1e fa          	endbr64 
    20ec:	8d 87 89 d6 90 90    	lea    -0x6f6f2977(%rdi),%eax
    20f2:	c3                   	retq   

00000000000020f3 <setval_310>:
    20f3:	f3 0f 1e fa          	endbr64 
    20f7:	c7 07 49 89 e0 c3    	movl   $0xc3e08949,(%rdi)
    20fd:	c3                   	retq   

00000000000020fe <getval_401>:
    20fe:	f3 0f 1e fa          	endbr64 
    2102:	b8 c9 ca 90 c3       	mov    $0xc390cac9,%eax
    2107:	c3                   	retq   

0000000000002108 <getval_325>:
    2108:	f3 0f 1e fa          	endbr64 
    210c:	b8 48 8b e0 c3       	mov    $0xc3e08b48,%eax
    2111:	c3                   	retq   

0000000000002112 <setval_414>:
    2112:	f3 0f 1e fa          	endbr64 
    2116:	c7 07 89 ca 92 c3    	movl   $0xc392ca89,(%rdi)
    211c:	c3                   	retq   

000000000000211d <setval_290>:
    211d:	f3 0f 1e fa          	endbr64 
    2121:	c7 07 81 c1 84 db    	movl   $0xdb84c181,(%rdi)
    2127:	c3                   	retq   

0000000000002128 <addval_204>:
    2128:	f3 0f 1e fa          	endbr64 
    212c:	8d 87 89 ca 38 c0    	lea    -0x3fc73577(%rdi),%eax
    2132:	c3                   	retq   

0000000000002133 <addval_138>:
    2133:	f3 0f 1e fa          	endbr64 
    2137:	8d 87 48 89 e0 c3    	lea    -0x3c1f76b8(%rdi),%eax
    213d:	c3                   	retq   

000000000000213e <addval_259>:
    213e:	f3 0f 1e fa          	endbr64 
    2142:	8d 87 8b ca 84 d2    	lea    -0x2d7b3575(%rdi),%eax
    2148:	c3                   	retq   

0000000000002149 <getval_181>:
    2149:	f3 0f 1e fa          	endbr64 
    214d:	b8 88 d6 38 db       	mov    $0xdb38d688,%eax
    2152:	c3                   	retq   

0000000000002153 <getval_245>:
    2153:	f3 0f 1e fa          	endbr64 
    2157:	b8 89 c1 84 db       	mov    $0xdb84c189,%eax
    215c:	c3                   	retq   

000000000000215d <setval_329>:
    215d:	f3 0f 1e fa          	endbr64 
    2161:	c7 07 81 c1 84 d2    	movl   $0xd284c181,(%rdi)
    2167:	c3                   	retq   

0000000000002168 <addval_217>:
    2168:	f3 0f 1e fa          	endbr64 
    216c:	8d 87 99 d6 20 c9    	lea    -0x36df2967(%rdi),%eax
    2172:	c3                   	retq   

0000000000002173 <setval_336>:
    2173:	f3 0f 1e fa          	endbr64 
    2177:	c7 07 48 81 e0 c3    	movl   $0xc3e08148,(%rdi)
    217d:	c3                   	retq   

000000000000217e <getval_330>:
    217e:	f3 0f 1e fa          	endbr64 
    2182:	b8 89 c1 c4 c9       	mov    $0xc9c4c189,%eax
    2187:	c3                   	retq   

0000000000002188 <end_farm>:
    2188:	f3 0f 1e fa          	endbr64 
    218c:	b8 01 00 00 00       	mov    $0x1,%eax
    2191:	c3                   	retq   

0000000000002192 <save_char>:
    2192:	8b 05 4c 5e 00 00    	mov    0x5e4c(%rip),%eax        # 7fe4 <gets_cnt>
    2198:	3d ff 03 00 00       	cmp    $0x3ff,%eax
    219d:	7f 4a                	jg     21e9 <save_char+0x57>
    219f:	89 f9                	mov    %edi,%ecx
    21a1:	c0 e9 04             	shr    $0x4,%cl
    21a4:	8d 14 40             	lea    (%rax,%rax,2),%edx
    21a7:	4c 8d 05 22 24 00 00 	lea    0x2422(%rip),%r8        # 45d0 <trans_char>
    21ae:	83 e1 0f             	and    $0xf,%ecx
    21b1:	45 0f b6 0c 08       	movzbl (%r8,%rcx,1),%r9d
    21b6:	48 8d 0d 23 52 00 00 	lea    0x5223(%rip),%rcx        # 73e0 <gets_buf>
    21bd:	48 63 f2             	movslq %edx,%rsi
    21c0:	44 88 0c 31          	mov    %r9b,(%rcx,%rsi,1)
    21c4:	8d 72 01             	lea    0x1(%rdx),%esi
    21c7:	83 e7 0f             	and    $0xf,%edi
    21ca:	41 0f b6 3c 38       	movzbl (%r8,%rdi,1),%edi
    21cf:	48 63 f6             	movslq %esi,%rsi
    21d2:	40 88 3c 31          	mov    %dil,(%rcx,%rsi,1)
    21d6:	83 c2 02             	add    $0x2,%edx
    21d9:	48 63 d2             	movslq %edx,%rdx
    21dc:	c6 04 11 20          	movb   $0x20,(%rcx,%rdx,1)
    21e0:	83 c0 01             	add    $0x1,%eax
    21e3:	89 05 fb 5d 00 00    	mov    %eax,0x5dfb(%rip)        # 7fe4 <gets_cnt>
    21e9:	c3                   	retq   

00000000000021ea <save_term>:
    21ea:	8b 05 f4 5d 00 00    	mov    0x5df4(%rip),%eax        # 7fe4 <gets_cnt>
    21f0:	8d 04 40             	lea    (%rax,%rax,2),%eax
    21f3:	48 98                	cltq   
    21f5:	48 8d 15 e4 51 00 00 	lea    0x51e4(%rip),%rdx        # 73e0 <gets_buf>
    21fc:	c6 04 02 00          	movb   $0x0,(%rdx,%rax,1)
    2200:	c3                   	retq   

0000000000002201 <check_fail>:
    2201:	f3 0f 1e fa          	endbr64 
    2205:	50                   	push   %rax
    2206:	58                   	pop    %rax
    2207:	48 83 ec 08          	sub    $0x8,%rsp
    220b:	0f be 15 d6 5d 00 00 	movsbl 0x5dd6(%rip),%edx        # 7fe8 <target_prefix>
    2212:	4c 8d 05 c7 51 00 00 	lea    0x51c7(%rip),%r8        # 73e0 <gets_buf>
    2219:	8b 0d 9d 51 00 00    	mov    0x519d(%rip),%ecx        # 73bc <check_level>
    221f:	48 8d 35 5d 21 00 00 	lea    0x215d(%rip),%rsi        # 4383 <_IO_stdin_used+0x383>
    2226:	bf 01 00 00 00       	mov    $0x1,%edi
    222b:	b8 00 00 00 00       	mov    $0x0,%eax
    2230:	e8 7b f1 ff ff       	callq  13b0 <__printf_chk@plt>
    2235:	bf 01 00 00 00       	mov    $0x1,%edi
    223a:	e8 c1 f1 ff ff       	callq  1400 <exit@plt>

000000000000223f <Gets>:
    223f:	f3 0f 1e fa          	endbr64 
    2243:	41 54                	push   %r12
    2245:	55                   	push   %rbp
    2246:	53                   	push   %rbx
    2247:	49 89 fc             	mov    %rdi,%r12
    224a:	c7 05 90 5d 00 00 00 	movl   $0x0,0x5d90(%rip)        # 7fe4 <gets_cnt>
    2251:	00 00 00 
    2254:	48 89 fb             	mov    %rdi,%rbx
    2257:	48 8b 3d 52 51 00 00 	mov    0x5152(%rip),%rdi        # 73b0 <infile>
    225e:	e8 cd f1 ff ff       	callq  1430 <getc@plt>
    2263:	83 f8 ff             	cmp    $0xffffffff,%eax
    2266:	74 18                	je     2280 <Gets+0x41>
    2268:	83 f8 0a             	cmp    $0xa,%eax
    226b:	74 13                	je     2280 <Gets+0x41>
    226d:	48 8d 6b 01          	lea    0x1(%rbx),%rbp
    2271:	88 03                	mov    %al,(%rbx)
    2273:	0f b6 f8             	movzbl %al,%edi
    2276:	e8 17 ff ff ff       	callq  2192 <save_char>
    227b:	48 89 eb             	mov    %rbp,%rbx
    227e:	eb d7                	jmp    2257 <Gets+0x18>
    2280:	c6 03 00             	movb   $0x0,(%rbx)
    2283:	b8 00 00 00 00       	mov    $0x0,%eax
    2288:	e8 5d ff ff ff       	callq  21ea <save_term>
    228d:	4c 89 e0             	mov    %r12,%rax
    2290:	5b                   	pop    %rbx
    2291:	5d                   	pop    %rbp
    2292:	41 5c                	pop    %r12
    2294:	c3                   	retq   

0000000000002295 <notify_server>:
    2295:	f3 0f 1e fa          	endbr64 
    2299:	53                   	push   %rbx
    229a:	48 81 ec 00 10 00 00 	sub    $0x1000,%rsp
    22a1:	48 83 0c 24 00       	orq    $0x0,(%rsp)
    22a6:	48 81 ec 00 10 00 00 	sub    $0x1000,%rsp
    22ad:	48 83 0c 24 00       	orq    $0x0,(%rsp)
    22b2:	48 83 ec 10          	sub    $0x10,%rsp
    22b6:	64 48 8b 04 25 28 00 	mov    %fs:0x28,%rax
    22bd:	00 00 
    22bf:	48 89 84 24 08 20 00 	mov    %rax,0x2008(%rsp)
    22c6:	00 
    22c7:	31 c0                	xor    %eax,%eax
    22c9:	83 3d fc 50 00 00 00 	cmpl   $0x0,0x50fc(%rip)        # 73cc <is_checker>
    22d0:	0f 85 8e 00 00 00    	jne    2364 <notify_server+0xcf>
    22d6:	81 3d 04 5d 00 00 9c 	cmpl   $0x1f9c,0x5d04(%rip)        # 7fe4 <gets_cnt>
    22dd:	1f 00 00 
    22e0:	7f 18                	jg     22fa <notify_server+0x65>
    22e2:	0f be 05 ff 5c 00 00 	movsbl 0x5cff(%rip),%eax        # 7fe8 <target_prefix>
    22e9:	83 3d c8 50 00 00 00 	cmpl   $0x0,0x50c8(%rip)        # 73b8 <notify>
    22f0:	74 23                	je     2315 <notify_server+0x80>
    22f2:	8b 15 cc 50 00 00    	mov    0x50cc(%rip),%edx        # 73c4 <authkey>
    22f8:	eb 20                	jmp    231a <notify_server+0x85>
    22fa:	48 8d 35 67 21 00 00 	lea    0x2167(%rip),%rsi        # 4468 <_IO_stdin_used+0x468>
    2301:	bf 01 00 00 00       	mov    $0x1,%edi
    2306:	e8 a5 f0 ff ff       	callq  13b0 <__printf_chk@plt>
    230b:	bf 01 00 00 00       	mov    $0x1,%edi
    2310:	e8 eb f0 ff ff       	callq  1400 <exit@plt>
    2315:	ba ff ff ff ff       	mov    $0xffffffff,%edx
    231a:	85 ff                	test   %edi,%edi
    231c:	74 62                	je     2380 <notify_server+0xeb>
    231e:	48 8d 1d 79 20 00 00 	lea    0x2079(%rip),%rbx        # 439e <_IO_stdin_used+0x39e>
    2325:	48 89 e7             	mov    %rsp,%rdi
    2328:	48 8d 0d b1 50 00 00 	lea    0x50b1(%rip),%rcx        # 73e0 <gets_buf>
    232f:	51                   	push   %rcx
    2330:	56                   	push   %rsi
    2331:	50                   	push   %rax
    2332:	52                   	push   %rdx
    2333:	49 89 d9             	mov    %rbx,%r9
    2336:	44 8b 05 d3 4c 00 00 	mov    0x4cd3(%rip),%r8d        # 7010 <target_id>
    233d:	48 8d 0d 5f 20 00 00 	lea    0x205f(%rip),%rcx        # 43a3 <_IO_stdin_used+0x3a3>
    2344:	ba 00 20 00 00       	mov    $0x2000,%edx
    2349:	be 01 00 00 00       	mov    $0x1,%esi
    234e:	b8 00 00 00 00       	mov    $0x0,%eax
    2353:	e8 e8 f0 ff ff       	callq  1440 <__sprintf_chk@plt>
    2358:	48 83 c4 20          	add    $0x20,%rsp
    235c:	48 89 df             	mov    %rbx,%rdi
    235f:	e8 3c ef ff ff       	callq  12a0 <puts@plt>
    2364:	48 8b 84 24 08 20 00 	mov    0x2008(%rsp),%rax
    236b:	00 
    236c:	64 48 33 04 25 28 00 	xor    %fs:0x28,%rax
    2373:	00 00 
    2375:	75 12                	jne    2389 <notify_server+0xf4>
    2377:	48 81 c4 10 20 00 00 	add    $0x2010,%rsp
    237e:	5b                   	pop    %rbx
    237f:	c3                   	retq   
    2380:	48 8d 1d 12 20 00 00 	lea    0x2012(%rip),%rbx        # 4399 <_IO_stdin_used+0x399>
    2387:	eb 9c                	jmp    2325 <notify_server+0x90>
    2389:	e8 32 ef ff ff       	callq  12c0 <__stack_chk_fail@plt>

000000000000238e <validate>:
    238e:	f3 0f 1e fa          	endbr64 
    2392:	53                   	push   %rbx
    2393:	89 fb                	mov    %edi,%ebx
    2395:	83 3d 30 50 00 00 00 	cmpl   $0x0,0x5030(%rip)        # 73cc <is_checker>
    239c:	74 72                	je     2410 <validate+0x82>
    239e:	39 3d 1c 50 00 00    	cmp    %edi,0x501c(%rip)        # 73c0 <vlevel>
    23a4:	75 32                	jne    23d8 <validate+0x4a>
    23a6:	8b 15 10 50 00 00    	mov    0x5010(%rip),%edx        # 73bc <check_level>
    23ac:	39 fa                	cmp    %edi,%edx
    23ae:	75 3e                	jne    23ee <validate+0x60>
    23b0:	0f be 15 31 5c 00 00 	movsbl 0x5c31(%rip),%edx        # 7fe8 <target_prefix>
    23b7:	4c 8d 05 22 50 00 00 	lea    0x5022(%rip),%r8        # 73e0 <gets_buf>
    23be:	89 f9                	mov    %edi,%ecx
    23c0:	48 8d 35 16 20 00 00 	lea    0x2016(%rip),%rsi        # 43dd <_IO_stdin_used+0x3dd>
    23c7:	bf 01 00 00 00       	mov    $0x1,%edi
    23cc:	b8 00 00 00 00       	mov    $0x0,%eax
    23d1:	e8 da ef ff ff       	callq  13b0 <__printf_chk@plt>
    23d6:	5b                   	pop    %rbx
    23d7:	c3                   	retq   
    23d8:	48 8d 3d e0 1f 00 00 	lea    0x1fe0(%rip),%rdi        # 43bf <_IO_stdin_used+0x3bf>
    23df:	e8 bc ee ff ff       	callq  12a0 <puts@plt>
    23e4:	b8 00 00 00 00       	mov    $0x0,%eax
    23e9:	e8 13 fe ff ff       	callq  2201 <check_fail>
    23ee:	89 f9                	mov    %edi,%ecx
    23f0:	48 8d 35 a1 20 00 00 	lea    0x20a1(%rip),%rsi        # 4498 <_IO_stdin_used+0x498>
    23f7:	bf 01 00 00 00       	mov    $0x1,%edi
    23fc:	b8 00 00 00 00       	mov    $0x0,%eax
    2401:	e8 aa ef ff ff       	callq  13b0 <__printf_chk@plt>
    2406:	b8 00 00 00 00       	mov    $0x0,%eax
    240b:	e8 f1 fd ff ff       	callq  2201 <check_fail>
    2410:	39 3d aa 4f 00 00    	cmp    %edi,0x4faa(%rip)        # 73c0 <vlevel>
    2416:	74 1a                	je     2432 <validate+0xa4>
    2418:	48 8d 3d a0 1f 00 00 	lea    0x1fa0(%rip),%rdi        # 43bf <_IO_stdin_used+0x3bf>
    241f:	e8 7c ee ff ff       	callq  12a0 <puts@plt>
    2424:	89 de                	mov    %ebx,%esi
    2426:	bf 00 00 00 00       	mov    $0x0,%edi
    242b:	e8 65 fe ff ff       	callq  2295 <notify_server>
    2430:	eb a4                	jmp    23d6 <validate+0x48>
    2432:	0f be 0d af 5b 00 00 	movsbl 0x5baf(%rip),%ecx        # 7fe8 <target_prefix>
    2439:	89 fa                	mov    %edi,%edx
    243b:	48 8d 35 7e 20 00 00 	lea    0x207e(%rip),%rsi        # 44c0 <_IO_stdin_used+0x4c0>
    2442:	bf 01 00 00 00       	mov    $0x1,%edi
    2447:	b8 00 00 00 00       	mov    $0x0,%eax
    244c:	e8 5f ef ff ff       	callq  13b0 <__printf_chk@plt>
    2451:	89 de                	mov    %ebx,%esi
    2453:	bf 01 00 00 00       	mov    $0x1,%edi
    2458:	e8 38 fe ff ff       	callq  2295 <notify_server>
    245d:	e9 74 ff ff ff       	jmpq   23d6 <validate+0x48>

0000000000002462 <fail>:
    2462:	f3 0f 1e fa          	endbr64 
    2466:	48 83 ec 08          	sub    $0x8,%rsp
    246a:	83 3d 5b 4f 00 00 00 	cmpl   $0x0,0x4f5b(%rip)        # 73cc <is_checker>
    2471:	75 11                	jne    2484 <fail+0x22>
    2473:	89 fe                	mov    %edi,%esi
    2475:	bf 00 00 00 00       	mov    $0x0,%edi
    247a:	e8 16 fe ff ff       	callq  2295 <notify_server>
    247f:	48 83 c4 08          	add    $0x8,%rsp
    2483:	c3                   	retq   
    2484:	b8 00 00 00 00       	mov    $0x0,%eax
    2489:	e8 73 fd ff ff       	callq  2201 <check_fail>

000000000000248e <bushandler>:
    248e:	f3 0f 1e fa          	endbr64 
    2492:	50                   	push   %rax
    2493:	58                   	pop    %rax
    2494:	48 83 ec 08          	sub    $0x8,%rsp
    2498:	83 3d 2d 4f 00 00 00 	cmpl   $0x0,0x4f2d(%rip)        # 73cc <is_checker>
    249f:	74 16                	je     24b7 <bushandler+0x29>
    24a1:	48 8d 3d 4a 1f 00 00 	lea    0x1f4a(%rip),%rdi        # 43f2 <_IO_stdin_used+0x3f2>
    24a8:	e8 f3 ed ff ff       	callq  12a0 <puts@plt>
    24ad:	b8 00 00 00 00       	mov    $0x0,%eax
    24b2:	e8 4a fd ff ff       	callq  2201 <check_fail>
    24b7:	48 8d 3d 3a 20 00 00 	lea    0x203a(%rip),%rdi        # 44f8 <_IO_stdin_used+0x4f8>
    24be:	e8 dd ed ff ff       	callq  12a0 <puts@plt>
    24c3:	48 8d 3d 32 1f 00 00 	lea    0x1f32(%rip),%rdi        # 43fc <_IO_stdin_used+0x3fc>
    24ca:	e8 d1 ed ff ff       	callq  12a0 <puts@plt>
    24cf:	be 00 00 00 00       	mov    $0x0,%esi
    24d4:	bf 00 00 00 00       	mov    $0x0,%edi
    24d9:	e8 b7 fd ff ff       	callq  2295 <notify_server>
    24de:	bf 01 00 00 00       	mov    $0x1,%edi
    24e3:	e8 18 ef ff ff       	callq  1400 <exit@plt>

00000000000024e8 <seghandler>:
    24e8:	f3 0f 1e fa          	endbr64 
    24ec:	50                   	push   %rax
    24ed:	58                   	pop    %rax
    24ee:	48 83 ec 08          	sub    $0x8,%rsp
    24f2:	83 3d d3 4e 00 00 00 	cmpl   $0x0,0x4ed3(%rip)        # 73cc <is_checker>
    24f9:	74 16                	je     2511 <seghandler+0x29>
    24fb:	48 8d 3d 10 1f 00 00 	lea    0x1f10(%rip),%rdi        # 4412 <_IO_stdin_used+0x412>
    2502:	e8 99 ed ff ff       	callq  12a0 <puts@plt>
    2507:	b8 00 00 00 00       	mov    $0x0,%eax
    250c:	e8 f0 fc ff ff       	callq  2201 <check_fail>
    2511:	48 8d 3d 00 20 00 00 	lea    0x2000(%rip),%rdi        # 4518 <_IO_stdin_used+0x518>
    2518:	e8 83 ed ff ff       	callq  12a0 <puts@plt>
    251d:	48 8d 3d d8 1e 00 00 	lea    0x1ed8(%rip),%rdi        # 43fc <_IO_stdin_used+0x3fc>
    2524:	e8 77 ed ff ff       	callq  12a0 <puts@plt>
    2529:	be 00 00 00 00       	mov    $0x0,%esi
    252e:	bf 00 00 00 00       	mov    $0x0,%edi
    2533:	e8 5d fd ff ff       	callq  2295 <notify_server>
    2538:	bf 01 00 00 00       	mov    $0x1,%edi
    253d:	e8 be ee ff ff       	callq  1400 <exit@plt>

0000000000002542 <illegalhandler>:
    2542:	f3 0f 1e fa          	endbr64 
    2546:	50                   	push   %rax
    2547:	58                   	pop    %rax
    2548:	48 83 ec 08          	sub    $0x8,%rsp
    254c:	83 3d 79 4e 00 00 00 	cmpl   $0x0,0x4e79(%rip)        # 73cc <is_checker>
    2553:	74 16                	je     256b <illegalhandler+0x29>
    2555:	48 8d 3d c9 1e 00 00 	lea    0x1ec9(%rip),%rdi        # 4425 <_IO_stdin_used+0x425>
    255c:	e8 3f ed ff ff       	callq  12a0 <puts@plt>
    2561:	b8 00 00 00 00       	mov    $0x0,%eax
    2566:	e8 96 fc ff ff       	callq  2201 <check_fail>
    256b:	48 8d 3d ce 1f 00 00 	lea    0x1fce(%rip),%rdi        # 4540 <_IO_stdin_used+0x540>
    2572:	e8 29 ed ff ff       	callq  12a0 <puts@plt>
    2577:	48 8d 3d 7e 1e 00 00 	lea    0x1e7e(%rip),%rdi        # 43fc <_IO_stdin_used+0x3fc>
    257e:	e8 1d ed ff ff       	callq  12a0 <puts@plt>
    2583:	be 00 00 00 00       	mov    $0x0,%esi
    2588:	bf 00 00 00 00       	mov    $0x0,%edi
    258d:	e8 03 fd ff ff       	callq  2295 <notify_server>
    2592:	bf 01 00 00 00       	mov    $0x1,%edi
    2597:	e8 64 ee ff ff       	callq  1400 <exit@plt>

000000000000259c <sigalrmhandler>:
    259c:	f3 0f 1e fa          	endbr64 
    25a0:	50                   	push   %rax
    25a1:	58                   	pop    %rax
    25a2:	48 83 ec 08          	sub    $0x8,%rsp
    25a6:	83 3d 1f 4e 00 00 00 	cmpl   $0x0,0x4e1f(%rip)        # 73cc <is_checker>
    25ad:	74 16                	je     25c5 <sigalrmhandler+0x29>
    25af:	48 8d 3d 83 1e 00 00 	lea    0x1e83(%rip),%rdi        # 4439 <_IO_stdin_used+0x439>
    25b6:	e8 e5 ec ff ff       	callq  12a0 <puts@plt>
    25bb:	b8 00 00 00 00       	mov    $0x0,%eax
    25c0:	e8 3c fc ff ff       	callq  2201 <check_fail>
    25c5:	ba 05 00 00 00       	mov    $0x5,%edx
    25ca:	48 8d 35 9f 1f 00 00 	lea    0x1f9f(%rip),%rsi        # 4570 <_IO_stdin_used+0x570>
    25d1:	bf 01 00 00 00       	mov    $0x1,%edi
    25d6:	b8 00 00 00 00       	mov    $0x0,%eax
    25db:	e8 d0 ed ff ff       	callq  13b0 <__printf_chk@plt>
    25e0:	be 00 00 00 00       	mov    $0x0,%esi
    25e5:	bf 00 00 00 00       	mov    $0x0,%edi
    25ea:	e8 a6 fc ff ff       	callq  2295 <notify_server>
    25ef:	bf 01 00 00 00       	mov    $0x1,%edi
    25f4:	e8 07 ee ff ff       	callq  1400 <exit@plt>

00000000000025f9 <launch>:
    25f9:	f3 0f 1e fa          	endbr64 
    25fd:	55                   	push   %rbp
    25fe:	48 89 e5             	mov    %rsp,%rbp
    2601:	48 83 ec 10          	sub    $0x10,%rsp
    2605:	48 89 fa             	mov    %rdi,%rdx
    2608:	64 48 8b 04 25 28 00 	mov    %fs:0x28,%rax
    260f:	00 00 
    2611:	48 89 45 f8          	mov    %rax,-0x8(%rbp)
    2615:	31 c0                	xor    %eax,%eax
    2617:	48 8d 47 17          	lea    0x17(%rdi),%rax
    261b:	48 89 c1             	mov    %rax,%rcx
    261e:	48 83 e1 f0          	and    $0xfffffffffffffff0,%rcx
    2622:	48 25 00 f0 ff ff    	and    $0xfffffffffffff000,%rax
    2628:	48 89 e6             	mov    %rsp,%rsi
    262b:	48 29 c6             	sub    %rax,%rsi
    262e:	48 89 f0             	mov    %rsi,%rax
    2631:	48 39 c4             	cmp    %rax,%rsp
    2634:	74 12                	je     2648 <launch+0x4f>
    2636:	48 81 ec 00 10 00 00 	sub    $0x1000,%rsp
    263d:	48 83 8c 24 f8 0f 00 	orq    $0x0,0xff8(%rsp)
    2644:	00 00 
    2646:	eb e9                	jmp    2631 <launch+0x38>
    2648:	48 89 c8             	mov    %rcx,%rax
    264b:	25 ff 0f 00 00       	and    $0xfff,%eax
    2650:	48 29 c4             	sub    %rax,%rsp
    2653:	48 85 c0             	test   %rax,%rax
    2656:	74 06                	je     265e <launch+0x65>
    2658:	48 83 4c 04 f8 00    	orq    $0x0,-0x8(%rsp,%rax,1)
    265e:	48 8d 7c 24 0f       	lea    0xf(%rsp),%rdi
    2663:	48 83 e7 f0          	and    $0xfffffffffffffff0,%rdi
    2667:	be f4 00 00 00       	mov    $0xf4,%esi
    266c:	e8 6f ec ff ff       	callq  12e0 <memset@plt>
    2671:	48 8b 05 c8 49 00 00 	mov    0x49c8(%rip),%rax        # 7040 <stdin@@GLIBC_2.2.5>
    2678:	48 39 05 31 4d 00 00 	cmp    %rax,0x4d31(%rip)        # 73b0 <infile>
    267f:	74 3a                	je     26bb <launch+0xc2>
    2681:	c7 05 35 4d 00 00 00 	movl   $0x0,0x4d35(%rip)        # 73c0 <vlevel>
    2688:	00 00 00 
    268b:	b8 00 00 00 00       	mov    $0x0,%eax
    2690:	e8 f8 f8 ff ff       	callq  1f8d <test>
    2695:	83 3d 30 4d 00 00 00 	cmpl   $0x0,0x4d30(%rip)        # 73cc <is_checker>
    269c:	75 35                	jne    26d3 <launch+0xda>
    269e:	48 8d 3d b4 1d 00 00 	lea    0x1db4(%rip),%rdi        # 4459 <_IO_stdin_used+0x459>
    26a5:	e8 f6 eb ff ff       	callq  12a0 <puts@plt>
    26aa:	48 8b 45 f8          	mov    -0x8(%rbp),%rax
    26ae:	64 48 33 04 25 28 00 	xor    %fs:0x28,%rax
    26b5:	00 00 
    26b7:	75 30                	jne    26e9 <launch+0xf0>
    26b9:	c9                   	leaveq 
    26ba:	c3                   	retq   
    26bb:	48 8d 35 7f 1d 00 00 	lea    0x1d7f(%rip),%rsi        # 4441 <_IO_stdin_used+0x441>
    26c2:	bf 01 00 00 00       	mov    $0x1,%edi
    26c7:	b8 00 00 00 00       	mov    $0x0,%eax
    26cc:	e8 df ec ff ff       	callq  13b0 <__printf_chk@plt>
    26d1:	eb ae                	jmp    2681 <launch+0x88>
    26d3:	48 8d 3d 74 1d 00 00 	lea    0x1d74(%rip),%rdi        # 444e <_IO_stdin_used+0x44e>
    26da:	e8 c1 eb ff ff       	callq  12a0 <puts@plt>
    26df:	b8 00 00 00 00       	mov    $0x0,%eax
    26e4:	e8 18 fb ff ff       	callq  2201 <check_fail>
    26e9:	e8 d2 eb ff ff       	callq  12c0 <__stack_chk_fail@plt>

00000000000026ee <stable_launch>:
    26ee:	f3 0f 1e fa          	endbr64 
    26f2:	53                   	push   %rbx
    26f3:	48 89 3d ae 4c 00 00 	mov    %rdi,0x4cae(%rip)        # 73a8 <global_offset>
    26fa:	41 b9 00 00 00 00    	mov    $0x0,%r9d
    2700:	41 b8 00 00 00 00    	mov    $0x0,%r8d
    2706:	b9 32 01 00 00       	mov    $0x132,%ecx
    270b:	ba 07 00 00 00       	mov    $0x7,%edx
    2710:	be 00 00 10 00       	mov    $0x100000,%esi
    2715:	bf 00 60 58 55       	mov    $0x55586000,%edi
    271a:	e8 b1 eb ff ff       	callq  12d0 <mmap@plt>
    271f:	48 89 c3             	mov    %rax,%rbx
    2722:	48 3d 00 60 58 55    	cmp    $0x55586000,%rax
    2728:	75 43                	jne    276d <stable_launch+0x7f>
    272a:	48 8d 90 f8 ff 0f 00 	lea    0xffff8(%rax),%rdx
    2731:	48 89 15 b8 58 00 00 	mov    %rdx,0x58b8(%rip)        # 7ff0 <stack_top>
    2738:	48 89 e0             	mov    %rsp,%rax
    273b:	48 89 d4             	mov    %rdx,%rsp
    273e:	48 89 c2             	mov    %rax,%rdx
    2741:	48 89 15 58 4c 00 00 	mov    %rdx,0x4c58(%rip)        # 73a0 <global_save_stack>
    2748:	48 8b 3d 59 4c 00 00 	mov    0x4c59(%rip),%rdi        # 73a8 <global_offset>
    274f:	e8 a5 fe ff ff       	callq  25f9 <launch>
    2754:	48 8b 05 45 4c 00 00 	mov    0x4c45(%rip),%rax        # 73a0 <global_save_stack>
    275b:	48 89 c4             	mov    %rax,%rsp
    275e:	be 00 00 10 00       	mov    $0x100000,%esi
    2763:	48 89 df             	mov    %rbx,%rdi
    2766:	e8 35 ec ff ff       	callq  13a0 <munmap@plt>
    276b:	5b                   	pop    %rbx
    276c:	c3                   	retq   
    276d:	be 00 00 10 00       	mov    $0x100000,%esi
    2772:	48 89 c7             	mov    %rax,%rdi
    2775:	e8 26 ec ff ff       	callq  13a0 <munmap@plt>
    277a:	b9 00 60 58 55       	mov    $0x55586000,%ecx
    277f:	48 8d 15 22 1e 00 00 	lea    0x1e22(%rip),%rdx        # 45a8 <_IO_stdin_used+0x5a8>
    2786:	be 01 00 00 00       	mov    $0x1,%esi
    278b:	48 8b 3d ce 48 00 00 	mov    0x48ce(%rip),%rdi        # 7060 <stderr@@GLIBC_2.2.5>
    2792:	b8 00 00 00 00       	mov    $0x0,%eax
    2797:	e8 84 ec ff ff       	callq  1420 <__fprintf_chk@plt>
    279c:	bf 01 00 00 00       	mov    $0x1,%edi
    27a1:	e8 5a ec ff ff       	callq  1400 <exit@plt>

00000000000027a6 <rio_readinitb>:
    27a6:	89 37                	mov    %esi,(%rdi)
    27a8:	c7 47 04 00 00 00 00 	movl   $0x0,0x4(%rdi)
    27af:	48 8d 47 10          	lea    0x10(%rdi),%rax
    27b3:	48 89 47 08          	mov    %rax,0x8(%rdi)
    27b7:	c3                   	retq   

00000000000027b8 <sigalrm_handler>:
    27b8:	f3 0f 1e fa          	endbr64 
    27bc:	50                   	push   %rax
    27bd:	58                   	pop    %rax
    27be:	48 83 ec 08          	sub    $0x8,%rsp
    27c2:	b9 00 00 00 00       	mov    $0x0,%ecx
    27c7:	48 8d 15 12 1e 00 00 	lea    0x1e12(%rip),%rdx        # 45e0 <trans_char+0x10>
    27ce:	be 01 00 00 00       	mov    $0x1,%esi
    27d3:	48 8b 3d 86 48 00 00 	mov    0x4886(%rip),%rdi        # 7060 <stderr@@GLIBC_2.2.5>
    27da:	b8 00 00 00 00       	mov    $0x0,%eax
    27df:	e8 3c ec ff ff       	callq  1420 <__fprintf_chk@plt>
    27e4:	bf 01 00 00 00       	mov    $0x1,%edi
    27e9:	e8 12 ec ff ff       	callq  1400 <exit@plt>

00000000000027ee <rio_writen>:
    27ee:	41 55                	push   %r13
    27f0:	41 54                	push   %r12
    27f2:	55                   	push   %rbp
    27f3:	53                   	push   %rbx
    27f4:	48 83 ec 08          	sub    $0x8,%rsp
    27f8:	41 89 fc             	mov    %edi,%r12d
    27fb:	48 89 f5             	mov    %rsi,%rbp
    27fe:	49 89 d5             	mov    %rdx,%r13
    2801:	48 89 d3             	mov    %rdx,%rbx
    2804:	eb 06                	jmp    280c <rio_writen+0x1e>
    2806:	48 29 c3             	sub    %rax,%rbx
    2809:	48 01 c5             	add    %rax,%rbp
    280c:	48 85 db             	test   %rbx,%rbx
    280f:	74 24                	je     2835 <rio_writen+0x47>
    2811:	48 89 da             	mov    %rbx,%rdx
    2814:	48 89 ee             	mov    %rbp,%rsi
    2817:	44 89 e7             	mov    %r12d,%edi
    281a:	e8 91 ea ff ff       	callq  12b0 <write@plt>
    281f:	48 85 c0             	test   %rax,%rax
    2822:	7f e2                	jg     2806 <rio_writen+0x18>
    2824:	e8 37 ea ff ff       	callq  1260 <__errno_location@plt>
    2829:	83 38 04             	cmpl   $0x4,(%rax)
    282c:	75 15                	jne    2843 <rio_writen+0x55>
    282e:	b8 00 00 00 00       	mov    $0x0,%eax
    2833:	eb d1                	jmp    2806 <rio_writen+0x18>
    2835:	4c 89 e8             	mov    %r13,%rax
    2838:	48 83 c4 08          	add    $0x8,%rsp
    283c:	5b                   	pop    %rbx
    283d:	5d                   	pop    %rbp
    283e:	41 5c                	pop    %r12
    2840:	41 5d                	pop    %r13
    2842:	c3                   	retq   
    2843:	48 c7 c0 ff ff ff ff 	mov    $0xffffffffffffffff,%rax
    284a:	eb ec                	jmp    2838 <rio_writen+0x4a>

000000000000284c <rio_read>:
    284c:	41 55                	push   %r13
    284e:	41 54                	push   %r12
    2850:	55                   	push   %rbp
    2851:	53                   	push   %rbx
    2852:	48 83 ec 08          	sub    $0x8,%rsp
    2856:	48 89 fb             	mov    %rdi,%rbx
    2859:	49 89 f5             	mov    %rsi,%r13
    285c:	49 89 d4             	mov    %rdx,%r12
    285f:	eb 17                	jmp    2878 <rio_read+0x2c>
    2861:	e8 fa e9 ff ff       	callq  1260 <__errno_location@plt>
    2866:	83 38 04             	cmpl   $0x4,(%rax)
    2869:	74 0d                	je     2878 <rio_read+0x2c>
    286b:	48 c7 c0 ff ff ff ff 	mov    $0xffffffffffffffff,%rax
    2872:	eb 54                	jmp    28c8 <rio_read+0x7c>
    2874:	48 89 6b 08          	mov    %rbp,0x8(%rbx)
    2878:	8b 6b 04             	mov    0x4(%rbx),%ebp
    287b:	85 ed                	test   %ebp,%ebp
    287d:	7f 23                	jg     28a2 <rio_read+0x56>
    287f:	48 8d 6b 10          	lea    0x10(%rbx),%rbp
    2883:	8b 3b                	mov    (%rbx),%edi
    2885:	ba 00 20 00 00       	mov    $0x2000,%edx
    288a:	48 89 ee             	mov    %rbp,%rsi
    288d:	e8 7e ea ff ff       	callq  1310 <read@plt>
    2892:	89 43 04             	mov    %eax,0x4(%rbx)
    2895:	85 c0                	test   %eax,%eax
    2897:	78 c8                	js     2861 <rio_read+0x15>
    2899:	75 d9                	jne    2874 <rio_read+0x28>
    289b:	b8 00 00 00 00       	mov    $0x0,%eax
    28a0:	eb 26                	jmp    28c8 <rio_read+0x7c>
    28a2:	89 e8                	mov    %ebp,%eax
    28a4:	4c 39 e0             	cmp    %r12,%rax
    28a7:	72 03                	jb     28ac <rio_read+0x60>
    28a9:	44 89 e5             	mov    %r12d,%ebp
    28ac:	4c 63 e5             	movslq %ebp,%r12
    28af:	48 8b 73 08          	mov    0x8(%rbx),%rsi
    28b3:	4c 89 e2             	mov    %r12,%rdx
    28b6:	4c 89 ef             	mov    %r13,%rdi
    28b9:	e8 a2 ea ff ff       	callq  1360 <memcpy@plt>
    28be:	4c 01 63 08          	add    %r12,0x8(%rbx)
    28c2:	29 6b 04             	sub    %ebp,0x4(%rbx)
    28c5:	4c 89 e0             	mov    %r12,%rax
    28c8:	48 83 c4 08          	add    $0x8,%rsp
    28cc:	5b                   	pop    %rbx
    28cd:	5d                   	pop    %rbp
    28ce:	41 5c                	pop    %r12
    28d0:	41 5d                	pop    %r13
    28d2:	c3                   	retq   

00000000000028d3 <rio_readlineb>:
    28d3:	41 55                	push   %r13
    28d5:	41 54                	push   %r12
    28d7:	55                   	push   %rbp
    28d8:	53                   	push   %rbx
    28d9:	48 83 ec 18          	sub    $0x18,%rsp
    28dd:	49 89 fd             	mov    %rdi,%r13
    28e0:	48 89 f5             	mov    %rsi,%rbp
    28e3:	49 89 d4             	mov    %rdx,%r12
    28e6:	64 48 8b 04 25 28 00 	mov    %fs:0x28,%rax
    28ed:	00 00 
    28ef:	48 89 44 24 08       	mov    %rax,0x8(%rsp)
    28f4:	31 c0                	xor    %eax,%eax
    28f6:	bb 01 00 00 00       	mov    $0x1,%ebx
    28fb:	eb 18                	jmp    2915 <rio_readlineb+0x42>
    28fd:	85 c0                	test   %eax,%eax
    28ff:	75 65                	jne    2966 <rio_readlineb+0x93>
    2901:	48 83 fb 01          	cmp    $0x1,%rbx
    2905:	75 3d                	jne    2944 <rio_readlineb+0x71>
    2907:	b8 00 00 00 00       	mov    $0x0,%eax
    290c:	eb 3d                	jmp    294b <rio_readlineb+0x78>
    290e:	48 83 c3 01          	add    $0x1,%rbx
    2912:	48 89 d5             	mov    %rdx,%rbp
    2915:	4c 39 e3             	cmp    %r12,%rbx
    2918:	73 2a                	jae    2944 <rio_readlineb+0x71>
    291a:	48 8d 74 24 07       	lea    0x7(%rsp),%rsi
    291f:	ba 01 00 00 00       	mov    $0x1,%edx
    2924:	4c 89 ef             	mov    %r13,%rdi
    2927:	e8 20 ff ff ff       	callq  284c <rio_read>
    292c:	83 f8 01             	cmp    $0x1,%eax
    292f:	75 cc                	jne    28fd <rio_readlineb+0x2a>
    2931:	48 8d 55 01          	lea    0x1(%rbp),%rdx
    2935:	0f b6 44 24 07       	movzbl 0x7(%rsp),%eax
    293a:	88 45 00             	mov    %al,0x0(%rbp)
    293d:	3c 0a                	cmp    $0xa,%al
    293f:	75 cd                	jne    290e <rio_readlineb+0x3b>
    2941:	48 89 d5             	mov    %rdx,%rbp
    2944:	c6 45 00 00          	movb   $0x0,0x0(%rbp)
    2948:	48 89 d8             	mov    %rbx,%rax
    294b:	48 8b 4c 24 08       	mov    0x8(%rsp),%rcx
    2950:	64 48 33 0c 25 28 00 	xor    %fs:0x28,%rcx
    2957:	00 00 
    2959:	75 14                	jne    296f <rio_readlineb+0x9c>
    295b:	48 83 c4 18          	add    $0x18,%rsp
    295f:	5b                   	pop    %rbx
    2960:	5d                   	pop    %rbp
    2961:	41 5c                	pop    %r12
    2963:	41 5d                	pop    %r13
    2965:	c3                   	retq   
    2966:	48 c7 c0 ff ff ff ff 	mov    $0xffffffffffffffff,%rax
    296d:	eb dc                	jmp    294b <rio_readlineb+0x78>
    296f:	e8 4c e9 ff ff       	callq  12c0 <__stack_chk_fail@plt>

0000000000002974 <urlencode>:
    2974:	41 54                	push   %r12
    2976:	55                   	push   %rbp
    2977:	53                   	push   %rbx
    2978:	48 83 ec 10          	sub    $0x10,%rsp
    297c:	48 89 fb             	mov    %rdi,%rbx
    297f:	48 89 f5             	mov    %rsi,%rbp
    2982:	64 48 8b 04 25 28 00 	mov    %fs:0x28,%rax
    2989:	00 00 
    298b:	48 89 44 24 08       	mov    %rax,0x8(%rsp)
    2990:	31 c0                	xor    %eax,%eax
    2992:	48 c7 c1 ff ff ff ff 	mov    $0xffffffffffffffff,%rcx
    2999:	f2 ae                	repnz scas %es:(%rdi),%al
    299b:	48 f7 d1             	not    %rcx
    299e:	8d 41 ff             	lea    -0x1(%rcx),%eax
    29a1:	eb 0f                	jmp    29b2 <urlencode+0x3e>
    29a3:	44 88 45 00          	mov    %r8b,0x0(%rbp)
    29a7:	48 8d 6d 01          	lea    0x1(%rbp),%rbp
    29ab:	48 83 c3 01          	add    $0x1,%rbx
    29af:	44 89 e0             	mov    %r12d,%eax
    29b2:	44 8d 60 ff          	lea    -0x1(%rax),%r12d
    29b6:	85 c0                	test   %eax,%eax
    29b8:	0f 84 a8 00 00 00    	je     2a66 <urlencode+0xf2>
    29be:	44 0f b6 03          	movzbl (%rbx),%r8d
    29c2:	41 80 f8 2a          	cmp    $0x2a,%r8b
    29c6:	0f 94 c2             	sete   %dl
    29c9:	41 80 f8 2d          	cmp    $0x2d,%r8b
    29cd:	0f 94 c0             	sete   %al
    29d0:	08 c2                	or     %al,%dl
    29d2:	75 cf                	jne    29a3 <urlencode+0x2f>
    29d4:	41 80 f8 2e          	cmp    $0x2e,%r8b
    29d8:	74 c9                	je     29a3 <urlencode+0x2f>
    29da:	41 80 f8 5f          	cmp    $0x5f,%r8b
    29de:	74 c3                	je     29a3 <urlencode+0x2f>
    29e0:	41 8d 40 d0          	lea    -0x30(%r8),%eax
    29e4:	3c 09                	cmp    $0x9,%al
    29e6:	76 bb                	jbe    29a3 <urlencode+0x2f>
    29e8:	41 8d 40 bf          	lea    -0x41(%r8),%eax
    29ec:	3c 19                	cmp    $0x19,%al
    29ee:	76 b3                	jbe    29a3 <urlencode+0x2f>
    29f0:	41 8d 40 9f          	lea    -0x61(%r8),%eax
    29f4:	3c 19                	cmp    $0x19,%al
    29f6:	76 ab                	jbe    29a3 <urlencode+0x2f>
    29f8:	41 80 f8 20          	cmp    $0x20,%r8b
    29fc:	74 56                	je     2a54 <urlencode+0xe0>
    29fe:	41 8d 40 e0          	lea    -0x20(%r8),%eax
    2a02:	3c 5f                	cmp    $0x5f,%al
    2a04:	0f 96 c2             	setbe  %dl
    2a07:	41 80 f8 09          	cmp    $0x9,%r8b
    2a0b:	0f 94 c0             	sete   %al
    2a0e:	08 c2                	or     %al,%dl
    2a10:	74 4f                	je     2a61 <urlencode+0xed>
    2a12:	48 89 e7             	mov    %rsp,%rdi
    2a15:	45 0f b6 c0          	movzbl %r8b,%r8d
    2a19:	48 8d 0d 55 1c 00 00 	lea    0x1c55(%rip),%rcx        # 4675 <trans_char+0xa5>
    2a20:	ba 08 00 00 00       	mov    $0x8,%edx
    2a25:	be 01 00 00 00       	mov    $0x1,%esi
    2a2a:	b8 00 00 00 00       	mov    $0x0,%eax
    2a2f:	e8 0c ea ff ff       	callq  1440 <__sprintf_chk@plt>
    2a34:	0f b6 04 24          	movzbl (%rsp),%eax
    2a38:	88 45 00             	mov    %al,0x0(%rbp)
    2a3b:	0f b6 44 24 01       	movzbl 0x1(%rsp),%eax
    2a40:	88 45 01             	mov    %al,0x1(%rbp)
    2a43:	0f b6 44 24 02       	movzbl 0x2(%rsp),%eax
    2a48:	88 45 02             	mov    %al,0x2(%rbp)
    2a4b:	48 8d 6d 03          	lea    0x3(%rbp),%rbp
    2a4f:	e9 57 ff ff ff       	jmpq   29ab <urlencode+0x37>
    2a54:	c6 45 00 2b          	movb   $0x2b,0x0(%rbp)
    2a58:	48 8d 6d 01          	lea    0x1(%rbp),%rbp
    2a5c:	e9 4a ff ff ff       	jmpq   29ab <urlencode+0x37>
    2a61:	b8 ff ff ff ff       	mov    $0xffffffff,%eax
    2a66:	48 8b 74 24 08       	mov    0x8(%rsp),%rsi
    2a6b:	64 48 33 34 25 28 00 	xor    %fs:0x28,%rsi
    2a72:	00 00 
    2a74:	75 09                	jne    2a7f <urlencode+0x10b>
    2a76:	48 83 c4 10          	add    $0x10,%rsp
    2a7a:	5b                   	pop    %rbx
    2a7b:	5d                   	pop    %rbp
    2a7c:	41 5c                	pop    %r12
    2a7e:	c3                   	retq   
    2a7f:	e8 3c e8 ff ff       	callq  12c0 <__stack_chk_fail@plt>

0000000000002a84 <submitr>:
    2a84:	f3 0f 1e fa          	endbr64 
    2a88:	41 57                	push   %r15
    2a8a:	41 56                	push   %r14
    2a8c:	41 55                	push   %r13
    2a8e:	41 54                	push   %r12
    2a90:	55                   	push   %rbp
    2a91:	53                   	push   %rbx
    2a92:	4c 8d 9c 24 00 60 ff 	lea    -0xa000(%rsp),%r11
    2a99:	ff 
    2a9a:	48 81 ec 00 10 00 00 	sub    $0x1000,%rsp
    2aa1:	48 83 0c 24 00       	orq    $0x0,(%rsp)
    2aa6:	4c 39 dc             	cmp    %r11,%rsp
    2aa9:	75 ef                	jne    2a9a <submitr+0x16>
    2aab:	48 83 ec 68          	sub    $0x68,%rsp
    2aaf:	49 89 fc             	mov    %rdi,%r12
    2ab2:	89 74 24 14          	mov    %esi,0x14(%rsp)
    2ab6:	49 89 d6             	mov    %rdx,%r14
    2ab9:	48 89 4c 24 08       	mov    %rcx,0x8(%rsp)
    2abe:	4c 89 44 24 18       	mov    %r8,0x18(%rsp)
    2ac3:	4d 89 cd             	mov    %r9,%r13
    2ac6:	48 8b ac 24 a0 a0 00 	mov    0xa0a0(%rsp),%rbp
    2acd:	00 
    2ace:	64 48 8b 04 25 28 00 	mov    %fs:0x28,%rax
    2ad5:	00 00 
    2ad7:	48 89 84 24 58 a0 00 	mov    %rax,0xa058(%rsp)
    2ade:	00 
    2adf:	31 c0                	xor    %eax,%eax
    2ae1:	c7 44 24 2c 00 00 00 	movl   $0x0,0x2c(%rsp)
    2ae8:	00 
    2ae9:	ba 00 00 00 00       	mov    $0x0,%edx
    2aee:	be 01 00 00 00       	mov    $0x1,%esi
    2af3:	bf 02 00 00 00       	mov    $0x2,%edi
    2af8:	e8 53 e9 ff ff       	callq  1450 <socket@plt>
    2afd:	85 c0                	test   %eax,%eax
    2aff:	0f 88 a0 02 00 00    	js     2da5 <submitr+0x321>
    2b05:	89 c3                	mov    %eax,%ebx
    2b07:	4c 89 e7             	mov    %r12,%rdi
    2b0a:	e8 21 e8 ff ff       	callq  1330 <gethostbyname@plt>
    2b0f:	48 85 c0             	test   %rax,%rax
    2b12:	0f 84 d9 02 00 00    	je     2df1 <submitr+0x36d>
    2b18:	4c 8d 7c 24 30       	lea    0x30(%rsp),%r15
    2b1d:	48 c7 44 24 30 00 00 	movq   $0x0,0x30(%rsp)
    2b24:	00 00 
    2b26:	48 c7 44 24 38 00 00 	movq   $0x0,0x38(%rsp)
    2b2d:	00 00 
    2b2f:	66 c7 44 24 30 02 00 	movw   $0x2,0x30(%rsp)
    2b36:	48 63 50 14          	movslq 0x14(%rax),%rdx
    2b3a:	48 8b 40 18          	mov    0x18(%rax),%rax
    2b3e:	48 8b 30             	mov    (%rax),%rsi
    2b41:	48 8d 7c 24 34       	lea    0x34(%rsp),%rdi
    2b46:	b9 0c 00 00 00       	mov    $0xc,%ecx
    2b4b:	e8 f0 e7 ff ff       	callq  1340 <__memmove_chk@plt>
    2b50:	0f b7 74 24 14       	movzwl 0x14(%rsp),%esi
    2b55:	66 c1 c6 08          	rol    $0x8,%si
    2b59:	66 89 74 24 32       	mov    %si,0x32(%rsp)
    2b5e:	ba 10 00 00 00       	mov    $0x10,%edx
    2b63:	4c 89 fe             	mov    %r15,%rsi
    2b66:	89 df                	mov    %ebx,%edi
    2b68:	e8 a3 e8 ff ff       	callq  1410 <connect@plt>
    2b6d:	85 c0                	test   %eax,%eax
    2b6f:	0f 88 e4 02 00 00    	js     2e59 <submitr+0x3d5>
    2b75:	49 c7 c0 ff ff ff ff 	mov    $0xffffffffffffffff,%r8
    2b7c:	b8 00 00 00 00       	mov    $0x0,%eax
    2b81:	4c 89 c1             	mov    %r8,%rcx
    2b84:	4c 89 ef             	mov    %r13,%rdi
    2b87:	f2 ae                	repnz scas %es:(%rdi),%al
    2b89:	48 89 ca             	mov    %rcx,%rdx
    2b8c:	48 f7 d2             	not    %rdx
    2b8f:	4c 89 c1             	mov    %r8,%rcx
    2b92:	4c 89 f7             	mov    %r14,%rdi
    2b95:	f2 ae                	repnz scas %es:(%rdi),%al
    2b97:	48 f7 d1             	not    %rcx
    2b9a:	48 89 ce             	mov    %rcx,%rsi
    2b9d:	4c 89 c1             	mov    %r8,%rcx
    2ba0:	48 8b 7c 24 08       	mov    0x8(%rsp),%rdi
    2ba5:	f2 ae                	repnz scas %es:(%rdi),%al
    2ba7:	48 f7 d1             	not    %rcx
    2baa:	48 8d 74 0e fe       	lea    -0x2(%rsi,%rcx,1),%rsi
    2baf:	4c 89 c1             	mov    %r8,%rcx
    2bb2:	48 8b 7c 24 18       	mov    0x18(%rsp),%rdi
    2bb7:	f2 ae                	repnz scas %es:(%rdi),%al
    2bb9:	48 89 c8             	mov    %rcx,%rax
    2bbc:	48 f7 d0             	not    %rax
    2bbf:	48 8d 4c 06 ff       	lea    -0x1(%rsi,%rax,1),%rcx
    2bc4:	48 8d 44 52 fd       	lea    -0x3(%rdx,%rdx,2),%rax
    2bc9:	48 8d 84 01 80 00 00 	lea    0x80(%rcx,%rax,1),%rax
    2bd0:	00 
    2bd1:	48 3d 00 20 00 00    	cmp    $0x2000,%rax
    2bd7:	0f 87 d6 02 00 00    	ja     2eb3 <submitr+0x42f>
    2bdd:	48 8d b4 24 50 40 00 	lea    0x4050(%rsp),%rsi
    2be4:	00 
    2be5:	b9 00 04 00 00       	mov    $0x400,%ecx
    2bea:	b8 00 00 00 00       	mov    $0x0,%eax
    2bef:	48 89 f7             	mov    %rsi,%rdi
    2bf2:	f3 48 ab             	rep stos %rax,%es:(%rdi)
    2bf5:	4c 89 ef             	mov    %r13,%rdi
    2bf8:	e8 77 fd ff ff       	callq  2974 <urlencode>
    2bfd:	85 c0                	test   %eax,%eax
    2bff:	0f 88 21 03 00 00    	js     2f26 <submitr+0x4a2>
    2c05:	4c 8d bc 24 50 20 00 	lea    0x2050(%rsp),%r15
    2c0c:	00 
    2c0d:	41 54                	push   %r12
    2c0f:	48 8d 84 24 58 40 00 	lea    0x4058(%rsp),%rax
    2c16:	00 
    2c17:	50                   	push   %rax
    2c18:	4d 89 f1             	mov    %r14,%r9
    2c1b:	4c 8b 44 24 18       	mov    0x18(%rsp),%r8
    2c20:	48 8d 0d e1 19 00 00 	lea    0x19e1(%rip),%rcx        # 4608 <trans_char+0x38>
    2c27:	ba 00 20 00 00       	mov    $0x2000,%edx
    2c2c:	be 01 00 00 00       	mov    $0x1,%esi
    2c31:	4c 89 ff             	mov    %r15,%rdi
    2c34:	b8 00 00 00 00       	mov    $0x0,%eax
    2c39:	e8 02 e8 ff ff       	callq  1440 <__sprintf_chk@plt>
    2c3e:	48 c7 c1 ff ff ff ff 	mov    $0xffffffffffffffff,%rcx
    2c45:	b8 00 00 00 00       	mov    $0x0,%eax
    2c4a:	4c 89 ff             	mov    %r15,%rdi
    2c4d:	f2 ae                	repnz scas %es:(%rdi),%al
    2c4f:	48 f7 d1             	not    %rcx
    2c52:	48 8d 51 ff          	lea    -0x1(%rcx),%rdx
    2c56:	4c 89 fe             	mov    %r15,%rsi
    2c59:	89 df                	mov    %ebx,%edi
    2c5b:	e8 8e fb ff ff       	callq  27ee <rio_writen>
    2c60:	48 83 c4 10          	add    $0x10,%rsp
    2c64:	48 85 c0             	test   %rax,%rax
    2c67:	0f 88 44 03 00 00    	js     2fb1 <submitr+0x52d>
    2c6d:	4c 8d 64 24 40       	lea    0x40(%rsp),%r12
    2c72:	89 de                	mov    %ebx,%esi
    2c74:	4c 89 e7             	mov    %r12,%rdi
    2c77:	e8 2a fb ff ff       	callq  27a6 <rio_readinitb>
    2c7c:	48 8d b4 24 50 20 00 	lea    0x2050(%rsp),%rsi
    2c83:	00 
    2c84:	ba 00 20 00 00       	mov    $0x2000,%edx
    2c89:	4c 89 e7             	mov    %r12,%rdi
    2c8c:	e8 42 fc ff ff       	callq  28d3 <rio_readlineb>
    2c91:	48 85 c0             	test   %rax,%rax
    2c94:	0f 8e 86 03 00 00    	jle    3020 <submitr+0x59c>
    2c9a:	48 8d 4c 24 2c       	lea    0x2c(%rsp),%rcx
    2c9f:	48 8d 94 24 50 60 00 	lea    0x6050(%rsp),%rdx
    2ca6:	00 
    2ca7:	48 8d bc 24 50 20 00 	lea    0x2050(%rsp),%rdi
    2cae:	00 
    2caf:	4c 8d 84 24 50 80 00 	lea    0x8050(%rsp),%r8
    2cb6:	00 
    2cb7:	48 8d 35 be 19 00 00 	lea    0x19be(%rip),%rsi        # 467c <trans_char+0xac>
    2cbe:	b8 00 00 00 00       	mov    $0x0,%eax
    2cc3:	e8 c8 e6 ff ff       	callq  1390 <__isoc99_sscanf@plt>
    2cc8:	48 8d b4 24 50 20 00 	lea    0x2050(%rsp),%rsi
    2ccf:	00 
    2cd0:	b9 03 00 00 00       	mov    $0x3,%ecx
    2cd5:	48 8d 3d b7 19 00 00 	lea    0x19b7(%rip),%rdi        # 4693 <trans_char+0xc3>
    2cdc:	f3 a6                	repz cmpsb %es:(%rdi),%ds:(%rsi)
    2cde:	0f 97 c0             	seta   %al
    2ce1:	1c 00                	sbb    $0x0,%al
    2ce3:	84 c0                	test   %al,%al
    2ce5:	0f 84 b3 03 00 00    	je     309e <submitr+0x61a>
    2ceb:	48 8d b4 24 50 20 00 	lea    0x2050(%rsp),%rsi
    2cf2:	00 
    2cf3:	48 8d 7c 24 40       	lea    0x40(%rsp),%rdi
    2cf8:	ba 00 20 00 00       	mov    $0x2000,%edx
    2cfd:	e8 d1 fb ff ff       	callq  28d3 <rio_readlineb>
    2d02:	48 85 c0             	test   %rax,%rax
    2d05:	7f c1                	jg     2cc8 <submitr+0x244>
    2d07:	48 b8 45 72 72 6f 72 	movabs $0x43203a726f727245,%rax
    2d0e:	3a 20 43 
    2d11:	48 ba 6c 69 65 6e 74 	movabs $0x6e7520746e65696c,%rdx
    2d18:	20 75 6e 
    2d1b:	48 89 45 00          	mov    %rax,0x0(%rbp)
    2d1f:	48 89 55 08          	mov    %rdx,0x8(%rbp)
    2d23:	48 b8 61 62 6c 65 20 	movabs $0x206f7420656c6261,%rax
    2d2a:	74 6f 20 
    2d2d:	48 ba 72 65 61 64 20 	movabs $0x6165682064616572,%rdx
    2d34:	68 65 61 
    2d37:	48 89 45 10          	mov    %rax,0x10(%rbp)
    2d3b:	48 89 55 18          	mov    %rdx,0x18(%rbp)
    2d3f:	48 b8 64 65 72 73 20 	movabs $0x6f72662073726564,%rax
    2d46:	66 72 6f 
    2d49:	48 ba 6d 20 74 68 65 	movabs $0x657220656874206d,%rdx
    2d50:	20 72 65 
    2d53:	48 89 45 20          	mov    %rax,0x20(%rbp)
    2d57:	48 89 55 28          	mov    %rdx,0x28(%rbp)
    2d5b:	48 b8 73 75 6c 74 20 	movabs $0x72657320746c7573,%rax
    2d62:	73 65 72 
    2d65:	48 89 45 30          	mov    %rax,0x30(%rbp)
    2d69:	c7 45 38 76 65 72 00 	movl   $0x726576,0x38(%rbp)
    2d70:	89 df                	mov    %ebx,%edi
    2d72:	e8 89 e5 ff ff       	callq  1300 <close@plt>
    2d77:	b8 ff ff ff ff       	mov    $0xffffffff,%eax
    2d7c:	48 8b 9c 24 58 a0 00 	mov    0xa058(%rsp),%rbx
    2d83:	00 
    2d84:	64 48 33 1c 25 28 00 	xor    %fs:0x28,%rbx
    2d8b:	00 00 
    2d8d:	0f 85 7e 04 00 00    	jne    3211 <submitr+0x78d>
    2d93:	48 81 c4 68 a0 00 00 	add    $0xa068,%rsp
    2d9a:	5b                   	pop    %rbx
    2d9b:	5d                   	pop    %rbp
    2d9c:	41 5c                	pop    %r12
    2d9e:	41 5d                	pop    %r13
    2da0:	41 5e                	pop    %r14
    2da2:	41 5f                	pop    %r15
    2da4:	c3                   	retq   
    2da5:	48 b8 45 72 72 6f 72 	movabs $0x43203a726f727245,%rax
    2dac:	3a 20 43 
    2daf:	48 ba 6c 69 65 6e 74 	movabs $0x6e7520746e65696c,%rdx
    2db6:	20 75 6e 
    2db9:	48 89 45 00          	mov    %rax,0x0(%rbp)
    2dbd:	48 89 55 08          	mov    %rdx,0x8(%rbp)
    2dc1:	48 b8 61 62 6c 65 20 	movabs $0x206f7420656c6261,%rax
    2dc8:	74 6f 20 
    2dcb:	48 ba 63 72 65 61 74 	movabs $0x7320657461657263,%rdx
    2dd2:	65 20 73 
    2dd5:	48 89 45 10          	mov    %rax,0x10(%rbp)
    2dd9:	48 89 55 18          	mov    %rdx,0x18(%rbp)
    2ddd:	c7 45 20 6f 63 6b 65 	movl   $0x656b636f,0x20(%rbp)
    2de4:	66 c7 45 24 74 00    	movw   $0x74,0x24(%rbp)
    2dea:	b8 ff ff ff ff       	mov    $0xffffffff,%eax
    2def:	eb 8b                	jmp    2d7c <submitr+0x2f8>
    2df1:	48 b8 45 72 72 6f 72 	movabs $0x44203a726f727245,%rax
    2df8:	3a 20 44 
    2dfb:	48 ba 4e 53 20 69 73 	movabs $0x6e7520736920534e,%rdx
    2e02:	20 75 6e 
    2e05:	48 89 45 00          	mov    %rax,0x0(%rbp)
    2e09:	48 89 55 08          	mov    %rdx,0x8(%rbp)
    2e0d:	48 b8 61 62 6c 65 20 	movabs $0x206f7420656c6261,%rax
    2e14:	74 6f 20 
    2e17:	48 ba 72 65 73 6f 6c 	movabs $0x2065766c6f736572,%rdx
    2e1e:	76 65 20 
    2e21:	48 89 45 10          	mov    %rax,0x10(%rbp)
    2e25:	48 89 55 18          	mov    %rdx,0x18(%rbp)
    2e29:	48 b8 73 65 72 76 65 	movabs $0x6120726576726573,%rax
    2e30:	72 20 61 
    2e33:	48 89 45 20          	mov    %rax,0x20(%rbp)
    2e37:	c7 45 28 64 64 72 65 	movl   $0x65726464,0x28(%rbp)
    2e3e:	66 c7 45 2c 73 73    	movw   $0x7373,0x2c(%rbp)
    2e44:	c6 45 2e 00          	movb   $0x0,0x2e(%rbp)
    2e48:	89 df                	mov    %ebx,%edi
    2e4a:	e8 b1 e4 ff ff       	callq  1300 <close@plt>
    2e4f:	b8 ff ff ff ff       	mov    $0xffffffff,%eax
    2e54:	e9 23 ff ff ff       	jmpq   2d7c <submitr+0x2f8>
    2e59:	48 b8 45 72 72 6f 72 	movabs $0x55203a726f727245,%rax
    2e60:	3a 20 55 
    2e63:	48 ba 6e 61 62 6c 65 	movabs $0x6f7420656c62616e,%rdx
    2e6a:	20 74 6f 
    2e6d:	48 89 45 00          	mov    %rax,0x0(%rbp)
    2e71:	48 89 55 08          	mov    %rdx,0x8(%rbp)
    2e75:	48 b8 20 63 6f 6e 6e 	movabs $0x7463656e6e6f6320,%rax
    2e7c:	65 63 74 
    2e7f:	48 ba 20 74 6f 20 74 	movabs $0x20656874206f7420,%rdx
    2e86:	68 65 20 
    2e89:	48 89 45 10          	mov    %rax,0x10(%rbp)
    2e8d:	48 89 55 18          	mov    %rdx,0x18(%rbp)
    2e91:	c7 45 20 73 65 72 76 	movl   $0x76726573,0x20(%rbp)
    2e98:	66 c7 45 24 65 72    	movw   $0x7265,0x24(%rbp)
    2e9e:	c6 45 26 00          	movb   $0x0,0x26(%rbp)
    2ea2:	89 df                	mov    %ebx,%edi
    2ea4:	e8 57 e4 ff ff       	callq  1300 <close@plt>
    2ea9:	b8 ff ff ff ff       	mov    $0xffffffff,%eax
    2eae:	e9 c9 fe ff ff       	jmpq   2d7c <submitr+0x2f8>
    2eb3:	48 b8 45 72 72 6f 72 	movabs $0x52203a726f727245,%rax
    2eba:	3a 20 52 
    2ebd:	48 ba 65 73 75 6c 74 	movabs $0x747320746c757365,%rdx
    2ec4:	20 73 74 
    2ec7:	48 89 45 00          	mov    %rax,0x0(%rbp)
    2ecb:	48 89 55 08          	mov    %rdx,0x8(%rbp)
    2ecf:	48 b8 72 69 6e 67 20 	movabs $0x6f6f7420676e6972,%rax
    2ed6:	74 6f 6f 
    2ed9:	48 ba 20 6c 61 72 67 	movabs $0x202e656772616c20,%rdx
    2ee0:	65 2e 20 
    2ee3:	48 89 45 10          	mov    %rax,0x10(%rbp)
    2ee7:	48 89 55 18          	mov    %rdx,0x18(%rbp)
    2eeb:	48 b8 49 6e 63 72 65 	movabs $0x6573616572636e49,%rax
    2ef2:	61 73 65 
    2ef5:	48 ba 20 53 55 42 4d 	movabs $0x5254494d42555320,%rdx
    2efc:	49 54 52 
    2eff:	48 89 45 20          	mov    %rax,0x20(%rbp)
    2f03:	48 89 55 28          	mov    %rdx,0x28(%rbp)
    2f07:	48 b8 5f 4d 41 58 42 	movabs $0x46554258414d5f,%rax
    2f0e:	55 46 00 
    2f11:	48 89 45 30          	mov    %rax,0x30(%rbp)
    2f15:	89 df                	mov    %ebx,%edi
    2f17:	e8 e4 e3 ff ff       	callq  1300 <close@plt>
    2f1c:	b8 ff ff ff ff       	mov    $0xffffffff,%eax
    2f21:	e9 56 fe ff ff       	jmpq   2d7c <submitr+0x2f8>
    2f26:	48 b8 45 72 72 6f 72 	movabs $0x52203a726f727245,%rax
    2f2d:	3a 20 52 
    2f30:	48 ba 65 73 75 6c 74 	movabs $0x747320746c757365,%rdx
    2f37:	20 73 74 
    2f3a:	48 89 45 00          	mov    %rax,0x0(%rbp)
    2f3e:	48 89 55 08          	mov    %rdx,0x8(%rbp)
    2f42:	48 b8 72 69 6e 67 20 	movabs $0x6e6f6320676e6972,%rax
    2f49:	63 6f 6e 
    2f4c:	48 ba 74 61 69 6e 73 	movabs $0x6e6120736e696174,%rdx
    2f53:	20 61 6e 
    2f56:	48 89 45 10          	mov    %rax,0x10(%rbp)
    2f5a:	48 89 55 18          	mov    %rdx,0x18(%rbp)
    2f5e:	48 b8 20 69 6c 6c 65 	movabs $0x6c6167656c6c6920,%rax
    2f65:	67 61 6c 
    2f68:	48 ba 20 6f 72 20 75 	movabs $0x72706e7520726f20,%rdx
    2f6f:	6e 70 72 
    2f72:	48 89 45 20          	mov    %rax,0x20(%rbp)
    2f76:	48 89 55 28          	mov    %rdx,0x28(%rbp)
    2f7a:	48 b8 69 6e 74 61 62 	movabs $0x20656c6261746e69,%rax
    2f81:	6c 65 20 
    2f84:	48 ba 63 68 61 72 61 	movabs $0x6574636172616863,%rdx
    2f8b:	63 74 65 
    2f8e:	48 89 45 30          	mov    %rax,0x30(%rbp)
    2f92:	48 89 55 38          	mov    %rdx,0x38(%rbp)
    2f96:	66 c7 45 40 72 2e    	movw   $0x2e72,0x40(%rbp)
    2f9c:	c6 45 42 00          	movb   $0x0,0x42(%rbp)
    2fa0:	89 df                	mov    %ebx,%edi
    2fa2:	e8 59 e3 ff ff       	callq  1300 <close@plt>
    2fa7:	b8 ff ff ff ff       	mov    $0xffffffff,%eax
    2fac:	e9 cb fd ff ff       	jmpq   2d7c <submitr+0x2f8>
    2fb1:	48 b8 45 72 72 6f 72 	movabs $0x43203a726f727245,%rax
    2fb8:	3a 20 43 
    2fbb:	48 ba 6c 69 65 6e 74 	movabs $0x6e7520746e65696c,%rdx
    2fc2:	20 75 6e 
    2fc5:	48 89 45 00          	mov    %rax,0x0(%rbp)
    2fc9:	48 89 55 08          	mov    %rdx,0x8(%rbp)
    2fcd:	48 b8 61 62 6c 65 20 	movabs $0x206f7420656c6261,%rax
    2fd4:	74 6f 20 
    2fd7:	48 ba 77 72 69 74 65 	movabs $0x6f74206574697277,%rdx
    2fde:	20 74 6f 
    2fe1:	48 89 45 10          	mov    %rax,0x10(%rbp)
    2fe5:	48 89 55 18          	mov    %rdx,0x18(%rbp)
    2fe9:	48 b8 20 74 68 65 20 	movabs $0x7365722065687420,%rax
    2ff0:	72 65 73 
    2ff3:	48 ba 75 6c 74 20 73 	movabs $0x7672657320746c75,%rdx
    2ffa:	65 72 76 
    2ffd:	48 89 45 20          	mov    %rax,0x20(%rbp)
    3001:	48 89 55 28          	mov    %rdx,0x28(%rbp)
    3005:	66 c7 45 30 65 72    	movw   $0x7265,0x30(%rbp)
    300b:	c6 45 32 00          	movb   $0x0,0x32(%rbp)
    300f:	89 df                	mov    %ebx,%edi
    3011:	e8 ea e2 ff ff       	callq  1300 <close@plt>
    3016:	b8 ff ff ff ff       	mov    $0xffffffff,%eax
    301b:	e9 5c fd ff ff       	jmpq   2d7c <submitr+0x2f8>
    3020:	48 b8 45 72 72 6f 72 	movabs $0x43203a726f727245,%rax
    3027:	3a 20 43 
    302a:	48 ba 6c 69 65 6e 74 	movabs $0x6e7520746e65696c,%rdx
    3031:	20 75 6e 
    3034:	48 89 45 00          	mov    %rax,0x0(%rbp)
    3038:	48 89 55 08          	mov    %rdx,0x8(%rbp)
    303c:	48 b8 61 62 6c 65 20 	movabs $0x206f7420656c6261,%rax
    3043:	74 6f 20 
    3046:	48 ba 72 65 61 64 20 	movabs $0x7269662064616572,%rdx
    304d:	66 69 72 
    3050:	48 89 45 10          	mov    %rax,0x10(%rbp)
    3054:	48 89 55 18          	mov    %rdx,0x18(%rbp)
    3058:	48 b8 73 74 20 68 65 	movabs $0x6564616568207473,%rax
    305f:	61 64 65 
    3062:	48 ba 72 20 66 72 6f 	movabs $0x72206d6f72662072,%rdx
    3069:	6d 20 72 
    306c:	48 89 45 20          	mov    %rax,0x20(%rbp)
    3070:	48 89 55 28          	mov    %rdx,0x28(%rbp)
    3074:	48 b8 65 73 75 6c 74 	movabs $0x657320746c757365,%rax
    307b:	20 73 65 
    307e:	48 89 45 30          	mov    %rax,0x30(%rbp)
    3082:	c7 45 38 72 76 65 72 	movl   $0x72657672,0x38(%rbp)
    3089:	c6 45 3c 00          	movb   $0x0,0x3c(%rbp)
    308d:	89 df                	mov    %ebx,%edi
    308f:	e8 6c e2 ff ff       	callq  1300 <close@plt>
    3094:	b8 ff ff ff ff       	mov    $0xffffffff,%eax
    3099:	e9 de fc ff ff       	jmpq   2d7c <submitr+0x2f8>
    309e:	48 8d b4 24 50 20 00 	lea    0x2050(%rsp),%rsi
    30a5:	00 
    30a6:	48 8d 7c 24 40       	lea    0x40(%rsp),%rdi
    30ab:	ba 00 20 00 00       	mov    $0x2000,%edx
    30b0:	e8 1e f8 ff ff       	callq  28d3 <rio_readlineb>
    30b5:	48 85 c0             	test   %rax,%rax
    30b8:	0f 8e 96 00 00 00    	jle    3154 <submitr+0x6d0>
    30be:	44 8b 44 24 2c       	mov    0x2c(%rsp),%r8d
    30c3:	41 81 f8 c8 00 00 00 	cmp    $0xc8,%r8d
    30ca:	0f 85 08 01 00 00    	jne    31d8 <submitr+0x754>
    30d0:	48 8d b4 24 50 20 00 	lea    0x2050(%rsp),%rsi
    30d7:	00 
    30d8:	48 89 ef             	mov    %rbp,%rdi
    30db:	e8 b0 e1 ff ff       	callq  1290 <strcpy@plt>
    30e0:	89 df                	mov    %ebx,%edi
    30e2:	e8 19 e2 ff ff       	callq  1300 <close@plt>
    30e7:	b9 04 00 00 00       	mov    $0x4,%ecx
    30ec:	48 8d 3d 9a 15 00 00 	lea    0x159a(%rip),%rdi        # 468d <trans_char+0xbd>
    30f3:	48 89 ee             	mov    %rbp,%rsi
    30f6:	f3 a6                	repz cmpsb %es:(%rdi),%ds:(%rsi)
    30f8:	0f 97 c0             	seta   %al
    30fb:	1c 00                	sbb    $0x0,%al
    30fd:	0f be c0             	movsbl %al,%eax
    3100:	85 c0                	test   %eax,%eax
    3102:	0f 84 74 fc ff ff    	je     2d7c <submitr+0x2f8>
    3108:	b9 05 00 00 00       	mov    $0x5,%ecx
    310d:	48 8d 3d 7d 15 00 00 	lea    0x157d(%rip),%rdi        # 4691 <trans_char+0xc1>
    3114:	48 89 ee             	mov    %rbp,%rsi
    3117:	f3 a6                	repz cmpsb %es:(%rdi),%ds:(%rsi)
    3119:	0f 97 c0             	seta   %al
    311c:	1c 00                	sbb    $0x0,%al
    311e:	0f be c0             	movsbl %al,%eax
    3121:	85 c0                	test   %eax,%eax
    3123:	0f 84 53 fc ff ff    	je     2d7c <submitr+0x2f8>
    3129:	b9 03 00 00 00       	mov    $0x3,%ecx
    312e:	48 8d 3d 61 15 00 00 	lea    0x1561(%rip),%rdi        # 4696 <trans_char+0xc6>
    3135:	48 89 ee             	mov    %rbp,%rsi
    3138:	f3 a6                	repz cmpsb %es:(%rdi),%ds:(%rsi)
    313a:	0f 97 c0             	seta   %al
    313d:	1c 00                	sbb    $0x0,%al
    313f:	0f be c0             	movsbl %al,%eax
    3142:	85 c0                	test   %eax,%eax
    3144:	0f 84 32 fc ff ff    	je     2d7c <submitr+0x2f8>
    314a:	b8 ff ff ff ff       	mov    $0xffffffff,%eax
    314f:	e9 28 fc ff ff       	jmpq   2d7c <submitr+0x2f8>
    3154:	48 b8 45 72 72 6f 72 	movabs $0x43203a726f727245,%rax
    315b:	3a 20 43 
    315e:	48 ba 6c 69 65 6e 74 	movabs $0x6e7520746e65696c,%rdx
    3165:	20 75 6e 
    3168:	48 89 45 00          	mov    %rax,0x0(%rbp)
    316c:	48 89 55 08          	mov    %rdx,0x8(%rbp)
    3170:	48 b8 61 62 6c 65 20 	movabs $0x206f7420656c6261,%rax
    3177:	74 6f 20 
    317a:	48 ba 72 65 61 64 20 	movabs $0x6174732064616572,%rdx
    3181:	73 74 61 
    3184:	48 89 45 10          	mov    %rax,0x10(%rbp)
    3188:	48 89 55 18          	mov    %rdx,0x18(%rbp)
    318c:	48 b8 74 75 73 20 6d 	movabs $0x7373656d20737574,%rax
    3193:	65 73 73 
    3196:	48 ba 61 67 65 20 66 	movabs $0x6d6f726620656761,%rdx
    319d:	72 6f 6d 
    31a0:	48 89 45 20          	mov    %rax,0x20(%rbp)
    31a4:	48 89 55 28          	mov    %rdx,0x28(%rbp)
    31a8:	48 b8 20 72 65 73 75 	movabs $0x20746c7573657220,%rax
    31af:	6c 74 20 
    31b2:	48 89 45 30          	mov    %rax,0x30(%rbp)
    31b6:	c7 45 38 73 65 72 76 	movl   $0x76726573,0x38(%rbp)
    31bd:	66 c7 45 3c 65 72    	movw   $0x7265,0x3c(%rbp)
    31c3:	c6 45 3e 00          	movb   $0x0,0x3e(%rbp)
    31c7:	89 df                	mov    %ebx,%edi
    31c9:	e8 32 e1 ff ff       	callq  1300 <close@plt>
    31ce:	b8 ff ff ff ff       	mov    $0xffffffff,%eax
    31d3:	e9 a4 fb ff ff       	jmpq   2d7c <submitr+0x2f8>
    31d8:	4c 8d 8c 24 50 80 00 	lea    0x8050(%rsp),%r9
    31df:	00 
    31e0:	48 8d 0d 61 14 00 00 	lea    0x1461(%rip),%rcx        # 4648 <trans_char+0x78>
    31e7:	48 c7 c2 ff ff ff ff 	mov    $0xffffffffffffffff,%rdx
    31ee:	be 01 00 00 00       	mov    $0x1,%esi
    31f3:	48 89 ef             	mov    %rbp,%rdi
    31f6:	b8 00 00 00 00       	mov    $0x0,%eax
    31fb:	e8 40 e2 ff ff       	callq  1440 <__sprintf_chk@plt>
    3200:	89 df                	mov    %ebx,%edi
    3202:	e8 f9 e0 ff ff       	callq  1300 <close@plt>
    3207:	b8 ff ff ff ff       	mov    $0xffffffff,%eax
    320c:	e9 6b fb ff ff       	jmpq   2d7c <submitr+0x2f8>
    3211:	e8 aa e0 ff ff       	callq  12c0 <__stack_chk_fail@plt>

0000000000003216 <init_timeout>:
    3216:	f3 0f 1e fa          	endbr64 
    321a:	85 ff                	test   %edi,%edi
    321c:	74 26                	je     3244 <init_timeout+0x2e>
    321e:	53                   	push   %rbx
    321f:	89 fb                	mov    %edi,%ebx
    3221:	78 1a                	js     323d <init_timeout+0x27>
    3223:	48 8d 35 8e f5 ff ff 	lea    -0xa72(%rip),%rsi        # 27b8 <sigalrm_handler>
    322a:	bf 0e 00 00 00       	mov    $0xe,%edi
    322f:	e8 ec e0 ff ff       	callq  1320 <signal@plt>
    3234:	89 df                	mov    %ebx,%edi
    3236:	e8 b5 e0 ff ff       	callq  12f0 <alarm@plt>
    323b:	5b                   	pop    %rbx
    323c:	c3                   	retq   
    323d:	bb 00 00 00 00       	mov    $0x0,%ebx
    3242:	eb df                	jmp    3223 <init_timeout+0xd>
    3244:	c3                   	retq   

0000000000003245 <init_driver>:
    3245:	f3 0f 1e fa          	endbr64 
    3249:	41 54                	push   %r12
    324b:	55                   	push   %rbp
    324c:	53                   	push   %rbx
    324d:	48 83 ec 20          	sub    $0x20,%rsp
    3251:	48 89 fd             	mov    %rdi,%rbp
    3254:	64 48 8b 04 25 28 00 	mov    %fs:0x28,%rax
    325b:	00 00 
    325d:	48 89 44 24 18       	mov    %rax,0x18(%rsp)
    3262:	31 c0                	xor    %eax,%eax
    3264:	be 01 00 00 00       	mov    $0x1,%esi
    3269:	bf 0d 00 00 00       	mov    $0xd,%edi
    326e:	e8 ad e0 ff ff       	callq  1320 <signal@plt>
    3273:	be 01 00 00 00       	mov    $0x1,%esi
    3278:	bf 1d 00 00 00       	mov    $0x1d,%edi
    327d:	e8 9e e0 ff ff       	callq  1320 <signal@plt>
    3282:	be 01 00 00 00       	mov    $0x1,%esi
    3287:	bf 1d 00 00 00       	mov    $0x1d,%edi
    328c:	e8 8f e0 ff ff       	callq  1320 <signal@plt>
    3291:	ba 00 00 00 00       	mov    $0x0,%edx
    3296:	be 01 00 00 00       	mov    $0x1,%esi
    329b:	bf 02 00 00 00       	mov    $0x2,%edi
    32a0:	e8 ab e1 ff ff       	callq  1450 <socket@plt>
    32a5:	85 c0                	test   %eax,%eax
    32a7:	0f 88 9c 00 00 00    	js     3349 <init_driver+0x104>
    32ad:	89 c3                	mov    %eax,%ebx
    32af:	48 8d 3d e3 13 00 00 	lea    0x13e3(%rip),%rdi        # 4699 <trans_char+0xc9>
    32b6:	e8 75 e0 ff ff       	callq  1330 <gethostbyname@plt>
    32bb:	48 85 c0             	test   %rax,%rax
    32be:	0f 84 d1 00 00 00    	je     3395 <init_driver+0x150>
    32c4:	49 89 e4             	mov    %rsp,%r12
    32c7:	48 c7 04 24 00 00 00 	movq   $0x0,(%rsp)
    32ce:	00 
    32cf:	48 c7 44 24 08 00 00 	movq   $0x0,0x8(%rsp)
    32d6:	00 00 
    32d8:	66 c7 04 24 02 00    	movw   $0x2,(%rsp)
    32de:	48 63 50 14          	movslq 0x14(%rax),%rdx
    32e2:	48 8b 40 18          	mov    0x18(%rax),%rax
    32e6:	48 8b 30             	mov    (%rax),%rsi
    32e9:	48 8d 7c 24 04       	lea    0x4(%rsp),%rdi
    32ee:	b9 0c 00 00 00       	mov    $0xc,%ecx
    32f3:	e8 48 e0 ff ff       	callq  1340 <__memmove_chk@plt>
    32f8:	66 c7 44 24 02 3c 9a 	movw   $0x9a3c,0x2(%rsp)
    32ff:	ba 10 00 00 00       	mov    $0x10,%edx
    3304:	4c 89 e6             	mov    %r12,%rsi
    3307:	89 df                	mov    %ebx,%edi
    3309:	e8 02 e1 ff ff       	callq  1410 <connect@plt>
    330e:	85 c0                	test   %eax,%eax
    3310:	0f 88 e7 00 00 00    	js     33fd <init_driver+0x1b8>
    3316:	89 df                	mov    %ebx,%edi
    3318:	e8 e3 df ff ff       	callq  1300 <close@plt>
    331d:	66 c7 45 00 4f 4b    	movw   $0x4b4f,0x0(%rbp)
    3323:	c6 45 02 00          	movb   $0x0,0x2(%rbp)
    3327:	b8 00 00 00 00       	mov    $0x0,%eax
    332c:	48 8b 4c 24 18       	mov    0x18(%rsp),%rcx
    3331:	64 48 33 0c 25 28 00 	xor    %fs:0x28,%rcx
    3338:	00 00 
    333a:	0f 85 10 01 00 00    	jne    3450 <init_driver+0x20b>
    3340:	48 83 c4 20          	add    $0x20,%rsp
    3344:	5b                   	pop    %rbx
    3345:	5d                   	pop    %rbp
    3346:	41 5c                	pop    %r12
    3348:	c3                   	retq   
    3349:	48 b8 45 72 72 6f 72 	movabs $0x43203a726f727245,%rax
    3350:	3a 20 43 
    3353:	48 ba 6c 69 65 6e 74 	movabs $0x6e7520746e65696c,%rdx
    335a:	20 75 6e 
    335d:	48 89 45 00          	mov    %rax,0x0(%rbp)
    3361:	48 89 55 08          	mov    %rdx,0x8(%rbp)
    3365:	48 b8 61 62 6c 65 20 	movabs $0x206f7420656c6261,%rax
    336c:	74 6f 20 
    336f:	48 ba 63 72 65 61 74 	movabs $0x7320657461657263,%rdx
    3376:	65 20 73 
    3379:	48 89 45 10          	mov    %rax,0x10(%rbp)
    337d:	48 89 55 18          	mov    %rdx,0x18(%rbp)
    3381:	c7 45 20 6f 63 6b 65 	movl   $0x656b636f,0x20(%rbp)
    3388:	66 c7 45 24 74 00    	movw   $0x74,0x24(%rbp)
    338e:	b8 ff ff ff ff       	mov    $0xffffffff,%eax
    3393:	eb 97                	jmp    332c <init_driver+0xe7>
    3395:	48 b8 45 72 72 6f 72 	movabs $0x44203a726f727245,%rax
    339c:	3a 20 44 
    339f:	48 ba 4e 53 20 69 73 	movabs $0x6e7520736920534e,%rdx
    33a6:	20 75 6e 
    33a9:	48 89 45 00          	mov    %rax,0x0(%rbp)
    33ad:	48 89 55 08          	mov    %rdx,0x8(%rbp)
    33b1:	48 b8 61 62 6c 65 20 	movabs $0x206f7420656c6261,%rax
    33b8:	74 6f 20 
    33bb:	48 ba 72 65 73 6f 6c 	movabs $0x2065766c6f736572,%rdx
    33c2:	76 65 20 
    33c5:	48 89 45 10          	mov    %rax,0x10(%rbp)
    33c9:	48 89 55 18          	mov    %rdx,0x18(%rbp)
    33cd:	48 b8 73 65 72 76 65 	movabs $0x6120726576726573,%rax
    33d4:	72 20 61 
    33d7:	48 89 45 20          	mov    %rax,0x20(%rbp)
    33db:	c7 45 28 64 64 72 65 	movl   $0x65726464,0x28(%rbp)
    33e2:	66 c7 45 2c 73 73    	movw   $0x7373,0x2c(%rbp)
    33e8:	c6 45 2e 00          	movb   $0x0,0x2e(%rbp)
    33ec:	89 df                	mov    %ebx,%edi
    33ee:	e8 0d df ff ff       	callq  1300 <close@plt>
    33f3:	b8 ff ff ff ff       	mov    $0xffffffff,%eax
    33f8:	e9 2f ff ff ff       	jmpq   332c <init_driver+0xe7>
    33fd:	48 b8 45 72 72 6f 72 	movabs $0x55203a726f727245,%rax
    3404:	3a 20 55 
    3407:	48 ba 6e 61 62 6c 65 	movabs $0x6f7420656c62616e,%rdx
    340e:	20 74 6f 
    3411:	48 89 45 00          	mov    %rax,0x0(%rbp)
    3415:	48 89 55 08          	mov    %rdx,0x8(%rbp)
    3419:	48 b8 20 63 6f 6e 6e 	movabs $0x7463656e6e6f6320,%rax
    3420:	65 63 74 
    3423:	48 ba 20 74 6f 20 73 	movabs $0x76726573206f7420,%rdx
    342a:	65 72 76 
    342d:	48 89 45 10          	mov    %rax,0x10(%rbp)
    3431:	48 89 55 18          	mov    %rdx,0x18(%rbp)
    3435:	66 c7 45 20 65 72    	movw   $0x7265,0x20(%rbp)
    343b:	c6 45 22 00          	movb   $0x0,0x22(%rbp)
    343f:	89 df                	mov    %ebx,%edi
    3441:	e8 ba de ff ff       	callq  1300 <close@plt>
    3446:	b8 ff ff ff ff       	mov    $0xffffffff,%eax
    344b:	e9 dc fe ff ff       	jmpq   332c <init_driver+0xe7>
    3450:	e8 6b de ff ff       	callq  12c0 <__stack_chk_fail@plt>

0000000000003455 <driver_post>:
    3455:	f3 0f 1e fa          	endbr64 
    3459:	53                   	push   %rbx
    345a:	4c 89 cb             	mov    %r9,%rbx
    345d:	45 85 c0             	test   %r8d,%r8d
    3460:	75 18                	jne    347a <driver_post+0x25>
    3462:	48 85 ff             	test   %rdi,%rdi
    3465:	74 05                	je     346c <driver_post+0x17>
    3467:	80 3f 00             	cmpb   $0x0,(%rdi)
    346a:	75 37                	jne    34a3 <driver_post+0x4e>
    346c:	66 c7 03 4f 4b       	movw   $0x4b4f,(%rbx)
    3471:	c6 43 02 00          	movb   $0x0,0x2(%rbx)
    3475:	44 89 c0             	mov    %r8d,%eax
    3478:	5b                   	pop    %rbx
    3479:	c3                   	retq   
    347a:	48 89 ca             	mov    %rcx,%rdx
    347d:	48 8d 35 2d 12 00 00 	lea    0x122d(%rip),%rsi        # 46b1 <trans_char+0xe1>
    3484:	bf 01 00 00 00       	mov    $0x1,%edi
    3489:	b8 00 00 00 00       	mov    $0x0,%eax
    348e:	e8 1d df ff ff       	callq  13b0 <__printf_chk@plt>
    3493:	66 c7 03 4f 4b       	movw   $0x4b4f,(%rbx)
    3498:	c6 43 02 00          	movb   $0x0,0x2(%rbx)
    349c:	b8 00 00 00 00       	mov    $0x0,%eax
    34a1:	eb d5                	jmp    3478 <driver_post+0x23>
    34a3:	48 83 ec 08          	sub    $0x8,%rsp
    34a7:	41 51                	push   %r9
    34a9:	49 89 c9             	mov    %rcx,%r9
    34ac:	49 89 d0             	mov    %rdx,%r8
    34af:	48 89 f9             	mov    %rdi,%rcx
    34b2:	48 89 f2             	mov    %rsi,%rdx
    34b5:	be 9a 3c 00 00       	mov    $0x3c9a,%esi
    34ba:	48 8d 3d d8 11 00 00 	lea    0x11d8(%rip),%rdi        # 4699 <trans_char+0xc9>
    34c1:	e8 be f5 ff ff       	callq  2a84 <submitr>
    34c6:	48 83 c4 10          	add    $0x10,%rsp
    34ca:	eb ac                	jmp    3478 <driver_post+0x23>

00000000000034cc <check>:
    34cc:	f3 0f 1e fa          	endbr64 
    34d0:	89 f8                	mov    %edi,%eax
    34d2:	c1 e8 1c             	shr    $0x1c,%eax
    34d5:	74 1d                	je     34f4 <check+0x28>
    34d7:	b9 00 00 00 00       	mov    $0x0,%ecx
    34dc:	83 f9 1f             	cmp    $0x1f,%ecx
    34df:	7f 0d                	jg     34ee <check+0x22>
    34e1:	89 f8                	mov    %edi,%eax
    34e3:	d3 e8                	shr    %cl,%eax
    34e5:	3c 0a                	cmp    $0xa,%al
    34e7:	74 11                	je     34fa <check+0x2e>
    34e9:	83 c1 08             	add    $0x8,%ecx
    34ec:	eb ee                	jmp    34dc <check+0x10>
    34ee:	b8 01 00 00 00       	mov    $0x1,%eax
    34f3:	c3                   	retq   
    34f4:	b8 00 00 00 00       	mov    $0x0,%eax
    34f9:	c3                   	retq   
    34fa:	b8 00 00 00 00       	mov    $0x0,%eax
    34ff:	c3                   	retq   

0000000000003500 <gencookie>:
    3500:	f3 0f 1e fa          	endbr64 
    3504:	53                   	push   %rbx
    3505:	83 c7 01             	add    $0x1,%edi
    3508:	e8 63 dd ff ff       	callq  1270 <srandom@plt>
    350d:	e8 6e de ff ff       	callq  1380 <random@plt>
    3512:	48 89 c7             	mov    %rax,%rdi
    3515:	89 c3                	mov    %eax,%ebx
    3517:	e8 b0 ff ff ff       	callq  34cc <check>
    351c:	85 c0                	test   %eax,%eax
    351e:	74 ed                	je     350d <gencookie+0xd>
    3520:	89 d8                	mov    %ebx,%eax
    3522:	5b                   	pop    %rbx
    3523:	c3                   	retq   
    3524:	66 2e 0f 1f 84 00 00 	nopw   %cs:0x0(%rax,%rax,1)
    352b:	00 00 00 
    352e:	66 90                	xchg   %ax,%ax

0000000000003530 <__libc_csu_init>:
    3530:	f3 0f 1e fa          	endbr64 
    3534:	41 57                	push   %r15
    3536:	4c 8d 3d 7b 37 00 00 	lea    0x377b(%rip),%r15        # 6cb8 <__frame_dummy_init_array_entry>
    353d:	41 56                	push   %r14
    353f:	49 89 d6             	mov    %rdx,%r14
    3542:	41 55                	push   %r13
    3544:	49 89 f5             	mov    %rsi,%r13
    3547:	41 54                	push   %r12
    3549:	41 89 fc             	mov    %edi,%r12d
    354c:	55                   	push   %rbp
    354d:	48 8d 2d 6c 37 00 00 	lea    0x376c(%rip),%rbp        # 6cc0 <__do_global_dtors_aux_fini_array_entry>
    3554:	53                   	push   %rbx
    3555:	4c 29 fd             	sub    %r15,%rbp
    3558:	48 83 ec 08          	sub    $0x8,%rsp
    355c:	e8 9f da ff ff       	callq  1000 <_init>
    3561:	48 c1 fd 03          	sar    $0x3,%rbp
    3565:	74 1f                	je     3586 <__libc_csu_init+0x56>
    3567:	31 db                	xor    %ebx,%ebx
    3569:	0f 1f 80 00 00 00 00 	nopl   0x0(%rax)
    3570:	4c 89 f2             	mov    %r14,%rdx
    3573:	4c 89 ee             	mov    %r13,%rsi
    3576:	44 89 e7             	mov    %r12d,%edi
    3579:	41 ff 14 df          	callq  *(%r15,%rbx,8)
    357d:	48 83 c3 01          	add    $0x1,%rbx
    3581:	48 39 dd             	cmp    %rbx,%rbp
    3584:	75 ea                	jne    3570 <__libc_csu_init+0x40>
    3586:	48 83 c4 08          	add    $0x8,%rsp
    358a:	5b                   	pop    %rbx
    358b:	5d                   	pop    %rbp
    358c:	41 5c                	pop    %r12
    358e:	41 5d                	pop    %r13
    3590:	41 5e                	pop    %r14
    3592:	41 5f                	pop    %r15
    3594:	c3                   	retq   
    3595:	66 66 2e 0f 1f 84 00 	data16 nopw %cs:0x0(%rax,%rax,1)
    359c:	00 00 00 00 

00000000000035a0 <__libc_csu_fini>:
    35a0:	f3 0f 1e fa          	endbr64 
    35a4:	c3                   	retq   

Disassembly of section .fini:

00000000000035a8 <_fini>:
    35a8:	f3 0f 1e fa          	endbr64 
    35ac:	48 83 ec 08          	sub    $0x8,%rsp
    35b0:	48 83 c4 08          	add    $0x8,%rsp
    35b4:	c3                   	retq   
